Component: ARM Compiler 5.06 update 7 (build 960) Tool: armlink [4d3601]

==============================================================================

Section Cross References

    aaa.o(.text) refers to ioinit.o(.text) for Delay_us
    aaa.o(.text) refers to aaa.o(.data) for AA_i
    aaa.o(.text) refers to aaa.o(.bss) for AA_TXData
    aaa.o(.text) refers to timer.o(.data) for ZhenPin
    aaa.o(.text) refers to pointfunction.o(.data) for FW_pointing_degree_LY
    aaa.o(.text) refers to f2d.o(x$fpl$f2d) for __aeabi_f2d
    aaa.o(.text) refers to dmul.o(x$fpl$dmul) for __aeabi_dmul
    aaa.o(.text) refers to d2f.o(x$fpl$d2f) for __aeabi_d2f
    aaa.o(.text) refers to stmflash.o(.text) for STMFLASH_Write
    aaa.o(.text) refers to main.o(.data) for NewAngle
    aaa.o(.text) refers to timer.o(.text) for ZiJian_YingDa
    aaa.o(.text) refers to dflt_clz.o(x$fpl$dflt) for __aeabi_i2d
    aaa.o(.text) refers to dfix.o(x$fpl$dfix) for __aeabi_d2iz
    aaa.o(.text) refers to dleqf.o(x$fpl$dleqf) for __aeabi_cdcmple
    aaa.o(.text) refers to exit.o(.data) for BeginMove_flag
    aaa.o(.text) refers to extiz.o(.data) for EXTI2_CNT
    aaa.o(.text) refers to scanfunction.o(.data) for Scan_Direction_ly
    aaa.o(.text) refers to yunsufunction.o(.data) for YunSu_Direction_ly
    aaa.o(.text) refers to dflt_clz.o(x$fpl$dfltu) for __aeabi_ui2d
    aaa.o(.text) refers to calculateslocation.o(.data) for Space_FW
    aaa.o(.text) refers to ddiv.o(x$fpl$ddiv) for __aeabi_ddiv
    main.o(.text) refers to system_stm32f4xx.o(.text) for SystemInit
    main.o(.text) refers to ioinit.o(.text) for Delay_ms
    main.o(.text) refers to misc.o(.text) for NVIC_PriorityGroupConfig
    main.o(.text) refers to usart.o(.text) for uart4_init
    main.o(.text) refers to can.o(.text) for CAN1_Mode_Init
    main.o(.text) refers to fsmcompensator.o(.text) for AskfsmFilterPara
    main.o(.text) refers to fsmcompensator_servo.o(.text) for AskfsmFilterPara_servo
    main.o(.text) refers to fsmc.o(.text) for bsp_InitFsmc
    main.o(.text) refers to elmo.o(.text) for wRS_FW
    main.o(.text) refers to dflt_clz.o(x$fpl$dflt) for __aeabi_i2d
    main.o(.text) refers to ddiv.o(x$fpl$ddiv) for __aeabi_ddiv
    main.o(.text) refers to d2f.o(x$fpl$d2f) for __aeabi_d2f
    main.o(.text) refers to extiz.o(.text) for EXTIX2_Init
    main.o(.text) refers to timer.o(.text) for TIM10_Init
    main.o(.text) refers to main.o(.data) for pxf_FW
    main.o(.text) refers to timer.o(.data) for FW_encoder_degrees_First
    main.o(.text) refers to receive_send_data.o(.data) for Send_gai_Status
    main.o(.text) refers to main.o(.bss) for PZdataRX
    angelcalculation.o(.text) refers to rt_memclr_w.o(.text) for __aeabi_memclr4
    angelcalculation.o(.text) refers to f2d.o(x$fpl$f2d) for __aeabi_f2d
    angelcalculation.o(.text) refers to dmul.o(x$fpl$dmul) for __aeabi_dmul
    angelcalculation.o(.text) refers to ddiv.o(x$fpl$ddiv) for __aeabi_ddiv
    angelcalculation.o(.text) refers to d2f.o(x$fpl$d2f) for __aeabi_d2f
    angelcalculation.o(.text) refers to cosf.o(i.__hardfp_cosf) for __hardfp_cosf
    angelcalculation.o(.text) refers to sinf.o(i.__hardfp_sinf) for __hardfp_sinf
    angelcalculation.o(.text) refers to sin.o(i.__hardfp_sin) for __hardfp_sin
    angelcalculation.o(.text) refers to daddsub_clz.o(x$fpl$dadd) for __aeabi_dadd
    angelcalculation.o(.text) refers to attitudealgorithm.o(.data) for SpaceSetValueFY
    angelcalculation.o(.text) refers to angelcalculation.o(.data) for kr
    angelcalculation.o(.text) refers to atan.o(i.__hardfp_atan) for __hardfp_atan
    angelcalculation.o(.text) refers to sqrt.o(i.__hardfp_sqrt) for __hardfp_sqrt
    angelcalculation1.o(.text) refers to rt_memclr_w.o(.text) for __aeabi_memclr4
    angelcalculation1.o(.text) refers to cosf.o(i.__hardfp_cosf) for __hardfp_cosf
    angelcalculation1.o(.text) refers to sinf.o(i.__hardfp_sinf) for __hardfp_sinf
    angelcalculation1.o(.text) refers to angelcalculation1.o(.data) for angle2
    angelcalculation1.o(.text) refers to atanf.o(i.__hardfp_atanf) for __hardfp_atanf
    angelcalculation1.o(.text) refers to f2d.o(x$fpl$f2d) for __aeabi_f2d
    angelcalculation1.o(.text) refers to ddiv.o(x$fpl$ddiv) for __aeabi_ddiv
    angelcalculation1.o(.text) refers to d2f.o(x$fpl$d2f) for __aeabi_d2f
    angelcalculation1.o(.text) refers to sqrt.o(i.__hardfp_sqrt) for __hardfp_sqrt
    angelcalculation1.o(.text) refers to daddsub_clz.o(x$fpl$dsub) for __aeabi_dsub
    angelcalculation1.o(.text) refers to attitudealgorithm.o(.data) for FW_buchang_degree
    attitudealgorithm.o(.text) refers to f2d.o(x$fpl$f2d) for __aeabi_f2d
    attitudealgorithm.o(.text) refers to daddsub_clz.o(x$fpl$dadd) for __aeabi_dadd
    attitudealgorithm.o(.text) refers to d2f.o(x$fpl$d2f) for __aeabi_d2f
    attitudealgorithm.o(.text) refers to dmul.o(x$fpl$dmul) for __aeabi_dmul
    attitudealgorithm.o(.text) refers to ddiv.o(x$fpl$ddiv) for __aeabi_ddiv
    attitudealgorithm.o(.text) refers to sin.o(i.__hardfp_sin) for __hardfp_sin
    attitudealgorithm.o(.text) refers to basic.o(x$fpl$basic) for __aeabi_dneg
    attitudealgorithm.o(.text) refers to cos.o(i.__hardfp_cos) for __hardfp_cos
    attitudealgorithm.o(.text) refers to cosf.o(i.__hardfp_cosf) for __hardfp_cosf
    attitudealgorithm.o(.text) refers to sinf.o(i.__hardfp_sinf) for __hardfp_sinf
    attitudealgorithm.o(.text) refers to main.o(.data) for NewAngle
    attitudealgorithm.o(.text) refers to attitudealgorithm.o(.data) for CarrierHG
    attitudealgorithm.o(.text) refers to atan.o(i.__hardfp_atan) for __hardfp_atan
    attitudealgorithm.o(.text) refers to sqrt.o(i.__hardfp_sqrt) for __hardfp_sqrt
    calculateslocation.o(.text) refers to f2d.o(x$fpl$f2d) for __aeabi_f2d
    calculateslocation.o(.text) refers to daddsub_clz.o(x$fpl$dadd) for __aeabi_dadd
    calculateslocation.o(.text) refers to d2f.o(x$fpl$d2f) for __aeabi_d2f
    calculateslocation.o(.text) refers to dmul.o(x$fpl$dmul) for __aeabi_dmul
    calculateslocation.o(.text) refers to ddiv.o(x$fpl$ddiv) for __aeabi_ddiv
    calculateslocation.o(.text) refers to rt_memclr_w.o(.text) for __aeabi_memclr4
    calculateslocation.o(.text) refers to cosf.o(i.__hardfp_cosf) for __hardfp_cosf
    calculateslocation.o(.text) refers to sinf.o(i.__hardfp_sinf) for __hardfp_sinf
    calculateslocation.o(.text) refers to rt_memcpy_w.o(.text) for __aeabi_memcpy4
    calculateslocation.o(.text) refers to calculateslocation.o(.constdata) for .constdata
    calculateslocation.o(.text) refers to atanf.o(i.__hardfp_atanf) for __hardfp_atanf
    calculateslocation.o(.text) refers to sqrtf.o(i.__hardfp_sqrtf) for __hardfp_sqrtf
    calculateslocation.o(.text) refers to calculateslocation.o(.data) for x1_1_z
    can.o(.text) refers to stm32f4xx_rcc.o(.text) for RCC_AHB1PeriphClockCmd
    can.o(.text) refers to stm32f4xx_gpio.o(.text) for GPIO_Init
    can.o(.text) refers to stm32f4xx_can.o(.text) for CAN_Init
    can.o(.text) refers to misc.o(.text) for NVIC_Init
    dycnvertcoordinate1.o(.text) refers to dycnvertcoordinate1.o(.bss) for inMatrixArray
    dycnvertcoordinate1.o(.text) refers to dycnvertcoordinate1.o(.data) for pitchLeanArray
    dycnvertcoordinate1.o(.text) refers to cosf.o(i.__hardfp_cosf) for __hardfp_cosf
    dycnvertcoordinate1.o(.text) refers to sinf.o(i.__hardfp_sinf) for __hardfp_sinf
    dycnvertcoordinate1.o(.text) refers to timer.o(.bss) for inAngle
    dycnvertcoordinate1.o(.text) refers to asinf.o(i.__hardfp_asinf) for __hardfp_asinf
    elmo.o(.text) refers to stm32f4xx_can.o(.text) for CAN_Transmit
    elmo.o(.text) refers to main.o(.data) for spe_FY
    elmo.o(.text) refers to elmo.o(.data) for pBuf
    elmotest.o(.text) refers to elmotest.o(.bss) for ELMO_TXData
    elmotest.o(.text) refers to main.o(.data) for EC_fw
    elmotest.o(.text) refers to aaa.o(.data) for Temp_Data
    elmotest.o(.text) refers to timer.o(.data) for FW_encoder_degrees
    elmotest.o(.text) refers to ioinit.o(.text) for Delay_ms
    elmotest.o(.text) refers to elmotest.o(.data) for ELMO_ZhenJiShu
    encode.o(.text) refers to stm32f4xx_rcc.o(.text) for RCC_APB1PeriphClockCmd
    encode.o(.text) refers to stm32f4xx_gpio.o(.text) for GPIO_PinAFConfig
    encode.o(.text) refers to stm32f4xx_tim.o(.text) for TIM_TimeBaseStructInit
    exit.o(.text) refers to exit.o(.data) for WaiTongBu_ScanAngleRang
    exit.o(.text) refers to f2d.o(x$fpl$f2d) for __aeabi_f2d
    exit.o(.text) refers to daddsub_clz.o(x$fpl$dadd) for __aeabi_dadd
    exit.o(.text) refers to d2f.o(x$fpl$d2f) for __aeabi_d2f
    exit.o(.text) refers to dleqf.o(x$fpl$dleqf) for __aeabi_cdcmple
    exit.o(.text) refers to drleqf.o(x$fpl$drleqf) for __aeabi_cdrcmple
    exit.o(.text) refers to daddsub_clz.o(x$fpl$dsub) for __aeabi_dsub
    exit.o(.text) refers to pointfunction.o(.data) for ZhiXiangFlag
    exit.o(.text) refers to attitudealgorithm.o(.data) for SpaceSetValueFW
    exit.o(.text) refers to stm32f4xx_gpio.o(.text) for GPIO_SetBits
    exit.o(.text) refers to ioinit.o(.text) for Delay_us
    exit.o(.text) refers to pointfunction.o(.text) for SpacePoint
    exit.o(.text) refers to fsmcompensator.o(.text) for FsmLeadLag1
    exit.o(.text) refers to extiz.o(.data) for EXTI2_FLAG
    exit.o(.text) refers to timer.o(.data) for fasong_cnt
    exit.o(.text) refers to positionloop.o(.data) for FW_location_kp
    extiz.o(.text) refers to stm32f4xx_exti.o(.text) for EXTI_ClearITPendingBit
    extiz.o(.text) refers to stm32f4xx_rcc.o(.text) for RCC_AHB1PeriphClockCmd
    extiz.o(.text) refers to stm32f4xx_gpio.o(.text) for GPIO_Init
    extiz.o(.text) refers to stm32f4xx_syscfg.o(.text) for SYSCFG_EXTILineConfig
    extiz.o(.text) refers to extiz.o(.data) for EXTI2_FLAG
    fsmc.o(.text) refers to stm32f4xx_rcc.o(.text) for RCC_AHB1PeriphClockCmd
    fsmc.o(.text) refers to stm32f4xx_gpio.o(.text) for GPIO_Init
    fsmc.o(.text) refers to stm32f4xx_fsmc.o(.text) for FSMC_NORSRAMInit
    fsmcompensator.o(.text) refers to dmul.o(x$fpl$dmul) for __aeabi_dmul
    fsmcompensator.o(.text) refers to daddsub_clz.o(x$fpl$dadd) for __aeabi_dadd
    fsmcompensator.o(.text) refers to daddsub_clz.o(x$fpl$dsub) for __aeabi_dsub
    fsmcompensator.o(.text) refers to ddiv.o(x$fpl$ddiv) for __aeabi_ddiv
    fsmcompensator.o(.text) refers to fsmcompensator.o(.data) for fsmTustinT
    fsmcompensator.o(.text) refers to fsmcompensator.o(.bss) for fsmTustinAs
    fsmcompensator.o(.text) refers to f2d.o(x$fpl$f2d) for __aeabi_f2d
    fsmcompensator.o(.text) refers to d2f.o(x$fpl$d2f) for __aeabi_d2f
    fsmcompensator.o(.text) refers to basic.o(x$fpl$basic) for __aeabi_dneg
    fsmcompensator_servo.o(.text) refers to dmul.o(x$fpl$dmul) for __aeabi_dmul
    fsmcompensator_servo.o(.text) refers to daddsub_clz.o(x$fpl$dadd) for __aeabi_dadd
    fsmcompensator_servo.o(.text) refers to daddsub_clz.o(x$fpl$dsub) for __aeabi_dsub
    fsmcompensator_servo.o(.text) refers to ddiv.o(x$fpl$ddiv) for __aeabi_ddiv
    fsmcompensator_servo.o(.text) refers to fsmcompensator_servo.o(.data) for fsmTustinT_servo
    fsmcompensator_servo.o(.text) refers to fsmcompensator_servo.o(.bss) for fsmTustinAs_servo
    fsmcompensator_servo.o(.text) refers to f2d.o(x$fpl$f2d) for __aeabi_f2d
    fsmcompensator_servo.o(.text) refers to d2f.o(x$fpl$d2f) for __aeabi_d2f
    fsmcompensator_servo.o(.text) refers to basic.o(x$fpl$basic) for __aeabi_dneg
    guandaozhuanhuan.o(.text) refers to f2d.o(x$fpl$f2d) for __aeabi_f2d
    guandaozhuanhuan.o(.text) refers to dmul.o(x$fpl$dmul) for __aeabi_dmul
    guandaozhuanhuan.o(.text) refers to ddiv.o(x$fpl$ddiv) for __aeabi_ddiv
    guandaozhuanhuan.o(.text) refers to d2f.o(x$fpl$d2f) for __aeabi_d2f
    guandaozhuanhuan.o(.text) refers to rt_memcpy_w.o(.text) for __aeabi_memcpy4
    guandaozhuanhuan.o(.text) refers to cosf.o(i.__hardfp_cosf) for __hardfp_cosf
    guandaozhuanhuan.o(.text) refers to sinf.o(i.__hardfp_sinf) for __hardfp_sinf
    guandaozhuanhuan.o(.text) refers to guandaozhuanhuan.o(.data) for FW_PianCha
    guandaozhuanhuan.o(.text) refers to timer.o(.data) for roll_attitude_float_ly
    guandaozhuanhuan.o(.text) refers to guandaozhuanhuan.o(.constdata) for .constdata
    guandaozhuanhuan.o(.text) refers to atan.o(i.__hardfp_atan) for __hardfp_atan
    guandaozhuanhuan.o(.text) refers to asin.o(i.__hardfp_asin) for __hardfp_asin
    guandaozhuanhuan.o(.text) refers to basic.o(x$fpl$basic) for __aeabi_dneg
    ioinit.o(.text) refers to stm32f4xx_rcc.o(.text) for RCC_AHB1PeriphClockCmd
    ioinit.o(.text) refers to stm32f4xx_gpio.o(.text) for GPIO_Init
    ioinit.o(.text) refers to f2d.o(x$fpl$f2d) for __aeabi_f2d
    ioinit.o(.text) refers to daddsub_clz.o(x$fpl$dadd) for __aeabi_dadd
    ioinit.o(.text) refers to d2f.o(x$fpl$d2f) for __aeabi_d2f
    ioinit.o(.text) refers to ddiv.o(x$fpl$ddiv) for __aeabi_ddiv
    ioinit.o(.text) refers to dmul.o(x$fpl$dmul) for __aeabi_dmul
    ioinit.o(.text) refers to dfix.o(x$fpl$dfix) for __aeabi_d2iz
    ioinit.o(.text) refers to ioinit.o(.data) for F_biaozhi1
    motoroutputposse.o(.text) refers to ioinit.o(.text) for DA12_out
    motoroutputposse.o(.text) refers to motoroutputposse.o(.data) for output_voltage
    motoroutputposse.o(.text) refers to timer.o(.data) for FW_light_loop_open_flag
    motoroutputposse.o(.text) refers to positionloop.o(.data) for FW_revise_out
    motoroutputposse.o(.text) refers to servofunction.o(.data) for miss_distance_X_float
    motoroutputposse.o(.text) refers to receive_send_data.o(.data) for GS_Suidong_Flag
    motoroutputposse.o(.text) refers to fy_485.o(.data) for FY_Speed_Position
    pointfunction.o(.text) refers to d2f.o(x$fpl$d2f) for __aeabi_d2f
    pointfunction.o(.text) refers to timer.o(.data) for FY_zero_degree
    pointfunction.o(.text) refers to pointfunction.o(.data) for FY_pianzhi
    pointfunction.o(.text) refers to deg_inversesolution.o(.data) for Deg_2_1
    positionloop.o(.text) refers to fsmcompensator.o(.text) for FsmLeadLag1
    positionloop.o(.text) refers to timer.o(.data) for FY_location_set
    positionloop.o(.text) refers to positionloop.o(.data) for FY_set_prepass_xiuzheng
    positionloop.o(.text) refers to fsmcompensator.o(.data) for Te
    positionloop.o(.text) refers to attitudealgorithm.o(.data) for FW_location_actual_set
    servofunction.o(.text) refers to dflt_clz.o(x$fpl$dfltu) for __aeabi_ui2d
    servofunction.o(.text) refers to ddiv.o(x$fpl$ddiv) for __aeabi_ddiv
    servofunction.o(.text) refers to dmul.o(x$fpl$dmul) for __aeabi_dmul
    servofunction.o(.text) refers to sin.o(i.__hardfp_sin) for __hardfp_sin
    servofunction.o(.text) refers to f2d.o(x$fpl$f2d) for __aeabi_f2d
    servofunction.o(.text) refers to d2f.o(x$fpl$d2f) for __aeabi_d2f
    servofunction.o(.text) refers to fsmcompensator_servo.o(.text) for FsmLeadLag2_servo
    servofunction.o(.text) refers to daddsub_clz.o(x$fpl$dadd) for __aeabi_dadd
    servofunction.o(.text) refers to timer.o(.data) for sin_cnt
    servofunction.o(.text) refers to servofunction.o(.data) for Amp_sin
    scanfunction.o(.text) refers to scanfunction.o(.data) for ScanAngleRang_ly
    scanfunction.o(.text) refers to timer.o(.data) for Scan_cnt_ly
    scanfunction.o(.text) refers to f2d.o(x$fpl$f2d) for __aeabi_f2d
    scanfunction.o(.text) refers to daddsub_clz.o(x$fpl$dadd) for __aeabi_dadd
    scanfunction.o(.text) refers to d2f.o(x$fpl$d2f) for __aeabi_d2f
    scanfunction.o(.text) refers to dleqf.o(x$fpl$dleqf) for __aeabi_cdcmple
    scanfunction.o(.text) refers to drleqf.o(x$fpl$drleqf) for __aeabi_cdrcmple
    scanfunction.o(.text) refers to daddsub_clz.o(x$fpl$dsub) for __aeabi_dsub
    scanfunction.o(.text) refers to pointfunction.o(.data) for ZhiXiangFlag
    scanfunction.o(.text) refers to attitudealgorithm.o(.data) for SpaceSetValueFW
    scanfunction.o(.text) refers to stm32f4xx_gpio.o(.text) for GPIO_SetBits
    scanfunction.o(.text) refers to ioinit.o(.text) for Delay_us
    scanfunction.o(.text) refers to pointfunction.o(.text) for SpacePoint
    scanfunction.o(.text) refers to positionloop.o(.data) for FW_location_kp
    stm32f4xx_it.o(.text) refers to stm32f4xx_can.o(.text) for CAN_GetITStatus
    stm32f4xx_it.o(.text) refers to aaa.o(.text) for AryToFloat
    stm32f4xx_it.o(.text) refers to main.o(.data) for CAN_ID
    stm32f4xx_it.o(.text) refers to stm32f4xx_it.o(.bss) for RxCAN
    stm32f4xx_it.o(.text) refers to stm32f4xx_it.o(.data) for tc
    stm32f4xx_it.o(.text) refers to f2d.o(x$fpl$f2d) for __aeabi_f2d
    stm32f4xx_it.o(.text) refers to ddiv.o(x$fpl$ddiv) for __aeabi_ddiv
    stm32f4xx_it.o(.text) refers to d2f.o(x$fpl$d2f) for __aeabi_d2f
    stmflash.o(.text) refers to stm32f4xx_flash.o(.text) for FLASH_Unlock
    testfunction.o(.text) refers to attitudealgorithm.o(.text) for SpaceToAxiseAttitude
    testfunction.o(.text) refers to f2d.o(x$fpl$f2d) for __aeabi_f2d
    testfunction.o(.text) refers to dmul.o(x$fpl$dmul) for __aeabi_dmul
    testfunction.o(.text) refers to d2f.o(x$fpl$d2f) for __aeabi_d2f
    testfunction.o(.text) refers to timer.o(.text) for getFW_step_chafen_speed
    testfunction.o(.text) refers to fsmcompensator.o(.text) for FsmLeadLag1
    testfunction.o(.text) refers to timer.o(.data) for Z_slave_1ms_distance
    testfunction.o(.text) refers to testfunction.o(.data) for watch_slave
    testfunction.o(.text) refers to attitudealgorithm.o(.data) for CarrierFW
    testfunction.o(.text) refers to positionloop.o(.data) for FW_location_kp
    testfunction.o(.text) refers to testfunction.o(.bss) for FW_rms
    testfunction.o(.text) refers to motoroutputposse.o(.data) for FW_wending_qiankui_speed_lowpass
    testscan.o(.text) refers to testscan.o(.bss) for Test_Scan_TXData
    testscan.o(.text) refers to timer.o(.data) for FW_encoder_degrees
    testscan.o(.text) refers to aaa.o(.data) for Temp_Data
    testscan.o(.text) refers to testscan.o(.data) for Qie_Huan
    testscan.o(.text) refers to scanfunction.o(.data) for Test_Scan_Time
    timer.o(.text) refers to rms2.o(.text) for CalculateRMS_1
    timer.o(.text) refers to f2d.o(x$fpl$f2d) for __aeabi_f2d
    timer.o(.text) refers to dmul.o(x$fpl$dmul) for __aeabi_dmul
    timer.o(.text) refers to d2f.o(x$fpl$d2f) for __aeabi_d2f
    timer.o(.text) refers to stm32f4xx_rcc.o(.text) for RCC_APB2PeriphClockCmd
    timer.o(.text) refers to stm32f4xx_tim.o(.text) for TIM_TimeBaseInit
    timer.o(.text) refers to misc.o(.text) for NVIC_Init
    timer.o(.text) refers to elmo.o(.text) for wMO_FW
    timer.o(.text) refers to stm32f4xx_gpio.o(.text) for GPIO_ToggleBits
    timer.o(.text) refers to timer.o(.data) for FY_location_loop_open_flag
    timer.o(.text) refers to fsmcompensator.o(.data) for X0_fsmT1
    timer.o(.text) refers to fsmcompensator_servo.o(.data) for X1_fsmT1_servo
    timer.o(.text) refers to motoroutputposse.o(.data) for accelerate_limit_1ms
    timer.o(.text) refers to dflt_clz.o(x$fpl$dflt) for __aeabi_i2d
    timer.o(.text) refers to dflt_clz.o(x$fpl$dfltu) for __aeabi_ui2d
    timer.o(.text) refers to timer.o(.bss) for read_usart2
    timer.o(.text) refers to ddiv.o(x$fpl$ddiv) for __aeabi_ddiv
    timer.o(.text) refers to drleqf.o(x$fpl$drleqf) for __aeabi_cdrcmple
    timer.o(.text) refers to dleqf.o(x$fpl$dleqf) for __aeabi_cdcmple
    timer.o(.text) refers to receive_send_data.o(.data) for FY_Xianwei
    timer.o(.text) refers to receive_send_data.o(.text) for Receive_JiShangData_Read
    timer.o(.text) refers to ioinit.o(.text) for DA12_out
    timer.o(.text) refers to servofunction.o(.data) for miss_distance_X_float
    timer.o(.text) refers to fy_485.o(.data) for Mode_Chose
    timer.o(.text) refers to fsmcompensator_servo.o(.bss) for erFsm2_servo
    timer.o(.text) refers to positionloop.o(.data) for FW_location_kp
    timer.o(.text) refers to scanfunction.o(.data) for Test_Scan_Time
    timer.o(.text) refers to yunsufunction.o(.data) for huanXiang_flag
    timer.o(.text) refers to pointfunction.o(.data) for KongJianPoin_flag
    timer.o(.text) refers to aaa.o(.data) for FW_Miss_distance
    timer.o(.text) refers to exit.o(.data) for EXIT_Song
    timer.o(.text) refers to main.o(.data) for Lici_flag_GS
    timer.o(.text) refers to extiz.o(.data) for EXTI2_FLAG
    timer.o(.text) refers to attitudealgorithm.o(.data) for SpaceSetValueFW
    timer.o(.text) refers to servofunction.o(.text) for ServoFunction
    timer.o(.text) refers to deg_inversesolution.o(.text) for Deg_InverseSolution
    timer.o(.text) refers to pointfunction.o(.text) for SpacePoint
    timer.o(.text) refers to daddsub_clz.o(x$fpl$dadd) for __aeabi_dadd
    timer.o(.text) refers to cos.o(i.__hardfp_cos) for __hardfp_cos
    timer.o(.text) refers to deg_inversesolution.o(.data) for FY_Degree_GS
    timer.o(.text) refers to sin.o(i.__hardfp_sin) for __hardfp_sin
    timer.o(.text) refers to daddsub_clz.o(x$fpl$drsb) for __aeabi_drsub
    timer.o(.text) refers to saomiao.o(.text) for SaoMiao_Init
    timer.o(.text) refers to motoroutputposse.o(.text) for BeginMortorFW
    timer.o(.text) refers to fsmcompensator.o(.text) for FsmLeadLag1
    timer.o(.text) refers to positionloop.o(.text) for fy_close_loop
    timer.o(.text) refers to writeguandao.o(.text) for WriteGuanDao
    timer.o(.text) refers to aaa.o(.text) for AA_Com_Read
    timer.o(.text) refers to aaa.o(.bss) for AA_TXData
    timer.o(.text) refers to dfix.o(x$fpl$dfix) for __aeabi_d2iz
    timer.o(.text) refers to stmflash.o(.text) for STMFLASH_Read
    timer.o(.text) refers to stm32f4xx_it.o(.data) for DianLiu_FW
    yunsufunction.o(.text) refers to yunsufunction.o(.data) for YunSu_Direction_ly
    yunsufunction.o(.text) refers to timer.o(.data) for YunSu_cnt_ly
    yunsufunction.o(.text) refers to f2d.o(x$fpl$f2d) for __aeabi_f2d
    yunsufunction.o(.text) refers to daddsub_clz.o(x$fpl$dadd) for __aeabi_dadd
    yunsufunction.o(.text) refers to d2f.o(x$fpl$d2f) for __aeabi_d2f
    yunsufunction.o(.text) refers to dleqf.o(x$fpl$dleqf) for __aeabi_cdcmple
    yunsufunction.o(.text) refers to drleqf.o(x$fpl$drleqf) for __aeabi_cdrcmple
    yunsufunction.o(.text) refers to pointfunction.o(.data) for ZhiXiangFlag
    yunsufunction.o(.text) refers to attitudealgorithm.o(.data) for SpaceSetValueFW
    yunsufunction.o(.text) refers to daddsub_clz.o(x$fpl$dsub) for __aeabi_dsub
    yunsufunction.o(.text) refers to stm32f4xx_gpio.o(.text) for GPIO_SetBits
    yunsufunction.o(.text) refers to ioinit.o(.text) for Delay_us
    yunsufunction.o(.text) refers to pointfunction.o(.text) for SpacePoint
    fy_485.o(.text) refers to f2d.o(x$fpl$f2d) for __aeabi_f2d
    fy_485.o(.text) refers to dmul.o(x$fpl$dmul) for __aeabi_dmul
    fy_485.o(.text) refers to d2f.o(x$fpl$d2f) for __aeabi_d2f
    fy_485.o(.text) refers to ioinit.o(.text) for Delay_us
    fy_485.o(.text) refers to ffixll.o(x$fpl$llsfromf) for __aeabi_f2lz
    fy_485.o(.text) refers to fy_485.o(.data) for Read_485Flag
    fy_485.o(.text) refers to fy_485.o(.bss) for Read_485_Buff
    fy_485.o(.text) refers to timer.o(.data) for FY_encoder_degrees
    ahrs_100a.o(.text) refers to f2d.o(x$fpl$f2d) for __aeabi_f2d
    ahrs_100a.o(.text) refers to dmul.o(x$fpl$dmul) for __aeabi_dmul
    ahrs_100a.o(.text) refers to d2f.o(x$fpl$d2f) for __aeabi_d2f
    ahrs_100a.o(.text) refers to pow.o(i.__hardfp_pow) for __hardfp_pow
    ahrs_100a.o(.text) refers to daddsub_clz.o(x$fpl$dadd) for __aeabi_dadd
    ahrs_100a.o(.text) refers to sqrt.o(i.__hardfp_sqrt) for __hardfp_sqrt
    ahrs_100a.o(.text) refers to ahrs_100a.o(.bss) for Gyro2_data
    ahrs_100a.o(.text) refers to timer.o(.data) for X_slave_1ms_distance
    camera_config.o(.text) refers to ascii.o(.text) for Char_To_Hex
    camera_config.o(.text) refers to camera_config.o(.bss) for CAM_Data
    rms.o(.text) refers to f2d.o(x$fpl$f2d) for __aeabi_f2d
    rms.o(.text) refers to sqrt.o(i.__hardfp_sqrt) for __hardfp_sqrt
    rms.o(.text) refers to d2f.o(x$fpl$d2f) for __aeabi_d2f
    rms.o(.text) refers to rms.o(.bss) for Data
    pc_communication.o(.text) refers to camera_config.o(.text) for Restore_Factory_Settings
    pc_communication.o(.text) refers to pc_communication.o(.bss) for PC_Data
    pc_communication.o(.text) refers to pc_communication.o(.data) for SF_IP
    pc_communication.o(.text) refers to timer.o(.data) for system_mode
    pc_communication.o(.text) refers to pointfunction.o(.data) for FW_pointing_degree_LY
    pc_communication.o(.text) refers to servofunction.o(.data) for miss_offset_X
    pc_communication.o(.text) refers to camera_config.o(.data) for Threshold
    rms2.o(.text) refers to f2d.o(x$fpl$f2d) for __aeabi_f2d
    rms2.o(.text) refers to sqrt.o(i.__hardfp_sqrt) for __hardfp_sqrt
    rms2.o(.text) refers to d2f.o(x$fpl$d2f) for __aeabi_d2f
    rms2.o(.text) refers to rms2.o(.bss) for Data_1_1
    comm1_communication.o(.text) refers to dflt_clz.o(x$fpl$dflt) for __aeabi_i2d
    comm1_communication.o(.text) refers to pow.o(i.__hardfp_pow) for __hardfp_pow
    comm1_communication.o(.text) refers to f2d.o(x$fpl$f2d) for __aeabi_f2d
    comm1_communication.o(.text) refers to dmul.o(x$fpl$dmul) for __aeabi_dmul
    comm1_communication.o(.text) refers to daddsub_clz.o(x$fpl$dsub) for __aeabi_dsub
    comm1_communication.o(.text) refers to d2f.o(x$fpl$d2f) for __aeabi_d2f
    comm1_communication.o(.text) refers to comm1_communication.o(.data) for temperature_Comm1_TXD
    comm1_communication.o(.text) refers to comm1_communication.o(.bss) for temperature_Comm1_RXD
    comm1_communication.o(.text) refers to daddsub_clz.o(x$fpl$dadd) for __aeabi_dadd
    saomiao.o(.text) refers to timer.o(.data) for FW_zero_degree1_fu
    saomiao.o(.text) refers to saomiao.o(.data) for FW_angle_X
    saomiao.o(.text) refers to timer.o(.bss) for ab
    usart.o(.emb_text) refers (Special) to use_no_semi_2.o(.text) for __use_no_semihosting
    usart.o(.text) refers (Special) to use_no_semi_2.o(.text) for __use_no_semihosting
    usart.o(.text) refers to stm32f4xx_rcc.o(.text) for RCC_AHB1PeriphClockCmd
    usart.o(.text) refers to stm32f4xx_gpio.o(.text) for GPIO_PinAFConfig
    usart.o(.text) refers to stm32f4xx_usart.o(.text) for USART_Init
    usart.o(.text) refers to misc.o(.text) for NVIC_Init
    usart.o(.text) refers to usart.o(.data) for Res
    usart.o(.text) refers to usart.o(.bss) for SF_Data
    usart.o(.bss) refers (Special) to use_no_semi_2.o(.text) for __use_no_semihosting
    usart.o(.data) refers (Special) to use_no_semi_2.o(.text) for __use_no_semihosting
    receive_send_data.o(.text) refers to f2d.o(x$fpl$f2d) for __aeabi_f2d
    receive_send_data.o(.text) refers to receive_send_data.o(.data) for touluo_Cnt1
    receive_send_data.o(.text) refers to receive_send_data.o(.bss) for Receive_Data
    receive_send_data.o(.text) refers to timer.o(.data) for system_mode
    receive_send_data.o(.text) refers to deg_inversesolution.o(.data) for FW_Degree_GS
    receive_send_data.o(.text) refers to dmul.o(x$fpl$dmul) for __aeabi_dmul
    receive_send_data.o(.text) refers to d2f.o(x$fpl$d2f) for __aeabi_d2f
    receive_send_data.o(.text) refers to servofunction.o(.data) for miss_distance_X_float
    receive_send_data.o(.text) refers to fsmcompensator.o(.text) for FsmLeadLag1
    deg_inversesolution.o(.text) refers to drleqf.o(x$fpl$drleqf) for __aeabi_cdrcmple
    deg_inversesolution.o(.text) refers to daddsub_clz.o(x$fpl$dsub) for __aeabi_dsub
    deg_inversesolution.o(.text) refers to dleqf.o(x$fpl$dleqf) for __aeabi_cdcmple
    deg_inversesolution.o(.text) refers to daddsub_clz.o(x$fpl$dadd) for __aeabi_dadd
    deg_inversesolution.o(.text) refers to deqf.o(x$fpl$deqf) for __aeabi_cdcmpeq
    deg_inversesolution.o(.text) refers to dmul.o(x$fpl$dmul) for __aeabi_dmul
    deg_inversesolution.o(.text) refers to sqrt.o(i.__hardfp_sqrt) for __hardfp_sqrt
    deg_inversesolution.o(.text) refers to ddiv.o(x$fpl$ddiv) for __aeabi_ddiv
    deg_inversesolution.o(.text) refers to d2f.o(x$fpl$d2f) for __aeabi_d2f
    deg_inversesolution.o(.text) refers to acosf.o(i.__hardfp_acosf) for __hardfp_acosf
    deg_inversesolution.o(.text) refers to f2d.o(x$fpl$f2d) for __aeabi_f2d
    deg_inversesolution.o(.text) refers to daddsub_clz.o(x$fpl$drsb) for __aeabi_drsub
    deg_inversesolution.o(.text) refers to sinf.o(i.__hardfp_sinf) for __hardfp_sinf
    deg_inversesolution.o(.text) refers to asinf.o(i.__hardfp_asinf) for __hardfp_asinf
    deg_inversesolution.o(.text) refers to deg_inversesolution.o(.data) for fai
    deg_inversesolution.o(.text) refers to fabs.o(i.__hardfp_fabs) for __hardfp_fabs
    deg_inversesolution.o(.text) refers to sin.o(i.__hardfp_sin) for __hardfp_sin
    writeguandao.o(.text) refers to writeguandao.o(.bss) for WR_GuanDao
    writeguandao.o(.text) refers to writeguandao.o(.data) for GuanDao_Data
    startup_stm32f4xx.o(STACK) refers (Special) to heapauxi.o(.text) for __use_two_region_memory
    startup_stm32f4xx.o(HEAP) refers (Special) to heapauxi.o(.text) for __use_two_region_memory
    startup_stm32f4xx.o(RESET) refers (Special) to heapauxi.o(.text) for __use_two_region_memory
    startup_stm32f4xx.o(RESET) refers to startup_stm32f4xx.o(STACK) for __initial_sp
    startup_stm32f4xx.o(RESET) refers to startup_stm32f4xx.o(.text) for Reset_Handler
    startup_stm32f4xx.o(RESET) refers to stm32f4xx_it.o(.text) for NMI_Handler
    startup_stm32f4xx.o(RESET) refers to extiz.o(.text) for EXTI9_5_IRQHandler
    startup_stm32f4xx.o(RESET) refers to timer.o(.text) for TIM1_UP_TIM10_IRQHandler
    startup_stm32f4xx.o(RESET) refers to usart.o(.text) for USART2_IRQHandler
    startup_stm32f4xx.o(.text) refers (Special) to heapauxi.o(.text) for __use_two_region_memory
    startup_stm32f4xx.o(.text) refers to system_stm32f4xx.o(.text) for SystemInit
    startup_stm32f4xx.o(.text) refers to __main.o(!!!main) for __main
    startup_stm32f4xx.o(.text) refers to startup_stm32f4xx.o(HEAP) for Heap_Mem
    startup_stm32f4xx.o(.text) refers to startup_stm32f4xx.o(STACK) for Stack_Mem
    stm32f4xx_adc.o(.text) refers to stm32f4xx_rcc.o(.text) for RCC_APB2PeriphResetCmd
    stm32f4xx_can.o(.text) refers to stm32f4xx_rcc.o(.text) for RCC_APB1PeriphResetCmd
    stm32f4xx_cryp.o(.text) refers to stm32f4xx_rcc.o(.text) for RCC_AHB2PeriphResetCmd
    stm32f4xx_cryp_aes.o(.text) refers to stm32f4xx_cryp.o(.text) for CRYP_KeyStructInit
    stm32f4xx_cryp_des.o(.text) refers to stm32f4xx_cryp.o(.text) for CRYP_KeyStructInit
    stm32f4xx_cryp_tdes.o(.text) refers to stm32f4xx_cryp.o(.text) for CRYP_KeyStructInit
    stm32f4xx_dac.o(.text) refers to stm32f4xx_rcc.o(.text) for RCC_APB1PeriphResetCmd
    stm32f4xx_gpio.o(.text) refers to stm32f4xx_rcc.o(.text) for RCC_AHB1PeriphResetCmd
    stm32f4xx_hash.o(.text) refers to stm32f4xx_rcc.o(.text) for RCC_AHB2PeriphResetCmd
    stm32f4xx_hash_md5.o(.text) refers to stm32f4xx_hash.o(.text) for HASH_DeInit
    stm32f4xx_hash_sha1.o(.text) refers to stm32f4xx_hash.o(.text) for HASH_DeInit
    stm32f4xx_i2c.o(.text) refers to stm32f4xx_rcc.o(.text) for RCC_APB1PeriphResetCmd
    stm32f4xx_pwr.o(.text) refers to stm32f4xx_rcc.o(.text) for RCC_APB1PeriphResetCmd
    stm32f4xx_rcc.o(.text) refers to stm32f4xx_rcc.o(.data) for APBAHBPrescTable
    stm32f4xx_rng.o(.text) refers to stm32f4xx_rcc.o(.text) for RCC_AHB2PeriphResetCmd
    stm32f4xx_sdio.o(.text) refers to stm32f4xx_rcc.o(.text) for RCC_APB2PeriphResetCmd
    stm32f4xx_spi.o(.text) refers to stm32f4xx_rcc.o(.text) for RCC_APB2PeriphResetCmd
    stm32f4xx_syscfg.o(.text) refers to stm32f4xx_rcc.o(.text) for RCC_APB2PeriphResetCmd
    stm32f4xx_tim.o(.text) refers to stm32f4xx_rcc.o(.text) for RCC_APB2PeriphResetCmd
    stm32f4xx_usart.o(.text) refers to stm32f4xx_rcc.o(.text) for RCC_APB2PeriphResetCmd
    stm32f4xx_wwdg.o(.text) refers to stm32f4xx_rcc.o(.text) for RCC_APB1PeriphResetCmd
    system_stm32f4xx.o(.text) refers to system_stm32f4xx.o(.data) for SystemCoreClock
    stepsingle.o(.text) refers to f2d.o(x$fpl$f2d) for __aeabi_f2d
    stepsingle.o(.text) refers to fabs.o(i.__hardfp_fabs) for __hardfp_fabs
    stepsingle.o(.text) refers to dmul.o(x$fpl$dmul) for __aeabi_dmul
    stepsingle.o(.text) refers to daddsub_clz.o(x$fpl$dadd) for __aeabi_dadd
    stepsingle.o(.text) refers to d2f.o(x$fpl$d2f) for __aeabi_d2f
    stepsingle.o(.text) refers to sqrtf.o(i.__hardfp_sqrtf) for __hardfp_sqrtf
    stepsingle.o(.text) refers to drleqf.o(x$fpl$drleqf) for __aeabi_cdrcmple
    use_no_semi_2.o(.text) refers (Special) to use_no_semi.o(.text) for __use_no_semihosting_swi
    __main.o(!!!main) refers to __rtentry.o(.ARM.Collect$$rtentry$$00000000) for __rt_entry
    basic.o(x$fpl$basic) refers (Special) to usenofp.o(x$fpl$usenofp) for __I$use$fp
    d2f.o(x$fpl$d2f) refers (Special) to usenofp.o(x$fpl$usenofp) for __I$use$fp
    d2f.o(x$fpl$d2f) refers to fretinf.o(x$fpl$fretinf) for __fpl_fretinf
    d2f.o(x$fpl$d2f) refers to dnaninf.o(x$fpl$dnaninf) for __fpl_dnaninf
    daddsub_clz.o(x$fpl$dadd) refers (Special) to usenofp.o(x$fpl$usenofp) for __I$use$fp
    daddsub_clz.o(x$fpl$dadd) refers to daddsub_clz.o(x$fpl$dsub) for _dsub1
    daddsub_clz.o(x$fpl$dadd) refers to dretinf.o(x$fpl$dretinf) for __fpl_dretinf
    daddsub_clz.o(x$fpl$dadd) refers to dnaninf.o(x$fpl$dnaninf) for __fpl_dnaninf
    daddsub_clz.o(x$fpl$drsb) refers (Special) to usenofp.o(x$fpl$usenofp) for __I$use$fp
    daddsub_clz.o(x$fpl$drsb) refers to daddsub_clz.o(x$fpl$dadd) for _dadd1
    daddsub_clz.o(x$fpl$drsb) refers to daddsub_clz.o(x$fpl$dsub) for _dsub1
    daddsub_clz.o(x$fpl$dsub) refers (Special) to usenofp.o(x$fpl$usenofp) for __I$use$fp
    daddsub_clz.o(x$fpl$dsub) refers to daddsub_clz.o(x$fpl$dadd) for _dadd1
    daddsub_clz.o(x$fpl$dsub) refers to dnaninf.o(x$fpl$dnaninf) for __fpl_dnaninf
    ddiv.o(x$fpl$drdiv) refers (Special) to usenofp.o(x$fpl$usenofp) for __I$use$fp
    ddiv.o(x$fpl$drdiv) refers to ddiv.o(x$fpl$ddiv) for ddiv_entry
    ddiv.o(x$fpl$ddiv) refers (Special) to usenofp.o(x$fpl$usenofp) for __I$use$fp
    ddiv.o(x$fpl$ddiv) refers to dretinf.o(x$fpl$dretinf) for __fpl_dretinf
    ddiv.o(x$fpl$ddiv) refers to dnaninf.o(x$fpl$dnaninf) for __fpl_dnaninf
    deqf.o(x$fpl$deqf) refers (Special) to usenofp.o(x$fpl$usenofp) for __I$use$fp
    deqf.o(x$fpl$deqf) refers to dnaninf.o(x$fpl$dnaninf) for __fpl_dnaninf
    deqf.o(x$fpl$deqf) refers to dcmpi.o(x$fpl$dcmpinf) for __fpl_dcmp_Inf
    dfix.o(x$fpl$dfix) refers (Special) to usenofp.o(x$fpl$usenofp) for __I$use$fp
    dfix.o(x$fpl$dfix) refers to dnaninf.o(x$fpl$dnaninf) for __fpl_dnaninf
    dfix.o(x$fpl$dfixr) refers (Special) to usenofp.o(x$fpl$usenofp) for __I$use$fp
    dfix.o(x$fpl$dfixr) refers to dnaninf.o(x$fpl$dnaninf) for __fpl_dnaninf
    dflt_clz.o(x$fpl$dfltu) refers (Special) to usenofp.o(x$fpl$usenofp) for __I$use$fp
    dflt_clz.o(x$fpl$dflt) refers (Special) to usenofp.o(x$fpl$usenofp) for __I$use$fp
    dflt_clz.o(x$fpl$dfltn) refers (Special) to usenofp.o(x$fpl$usenofp) for __I$use$fp
    dleqf.o(x$fpl$dleqf) refers (Special) to usenofp.o(x$fpl$usenofp) for __I$use$fp
    dleqf.o(x$fpl$dleqf) refers to dnaninf.o(x$fpl$dnaninf) for __fpl_dnaninf
    dleqf.o(x$fpl$dleqf) refers to dcmpi.o(x$fpl$dcmpinf) for __fpl_dcmp_Inf
    dmul.o(x$fpl$dmul) refers (Special) to usenofp.o(x$fpl$usenofp) for __I$use$fp
    dmul.o(x$fpl$dmul) refers to dretinf.o(x$fpl$dretinf) for __fpl_dretinf
    dmul.o(x$fpl$dmul) refers to dnaninf.o(x$fpl$dnaninf) for __fpl_dnaninf
    drleqf.o(x$fpl$drleqf) refers (Special) to usenofp.o(x$fpl$usenofp) for __I$use$fp
    drleqf.o(x$fpl$drleqf) refers to dleqf.o(x$fpl$dleqf) for __fpl_dcmple_InfNaN
    f2d.o(x$fpl$f2d) refers (Special) to usenofp.o(x$fpl$usenofp) for __I$use$fp
    f2d.o(x$fpl$f2d) refers to fnaninf.o(x$fpl$fnaninf) for __fpl_fnaninf
    f2d.o(x$fpl$f2d) refers to dretinf.o(x$fpl$dretinf) for __fpl_dretinf
    ffixll.o(x$fpl$llsfromf) refers (Special) to usenofp.o(x$fpl$usenofp) for __I$use$fp
    ffixll.o(x$fpl$llsfromf) refers to fnaninf.o(x$fpl$fnaninf) for __fpl_fnaninf
    ffixll.o(x$fpl$llsfromfr) refers (Special) to usenofp.o(x$fpl$usenofp) for __I$use$fp
    ffixll.o(x$fpl$llsfromfr) refers to fnaninf.o(x$fpl$fnaninf) for __fpl_fnaninf
    acosf.o(i.__hardfp_acosf) refers (Special) to usenofp.o(x$fpl$usenofp) for __I$use$fp
    acosf.o(i.__hardfp_acosf) refers to sqrtf.o(i.sqrtf) for sqrtf
    acosf.o(i.__hardfp_acosf) refers to funder.o(i.__mathlib_flt_infnan) for __mathlib_flt_infnan
    acosf.o(i.__hardfp_acosf) refers to _rserrno.o(.text) for __set_errno
    acosf.o(i.__hardfp_acosf) refers to funder.o(i.__mathlib_flt_invalid) for __mathlib_flt_invalid
    acosf.o(i.__softfp_acosf) refers (Special) to usenofp.o(x$fpl$usenofp) for __I$use$fp
    acosf.o(i.__softfp_acosf) refers to acosf.o(i.__hardfp_acosf) for __hardfp_acosf
    acosf.o(i.acosf) refers (Special) to usenofp.o(x$fpl$usenofp) for __I$use$fp
    acosf.o(i.acosf) refers to acosf.o(i.__hardfp_acosf) for __hardfp_acosf
    acosf_x.o(i.____hardfp_acosf$lsc) refers (Special) to usenofp.o(x$fpl$usenofp) for __I$use$fp
    acosf_x.o(i.____hardfp_acosf$lsc) refers to sqrtf.o(i.sqrtf) for sqrtf
    acosf_x.o(i.____hardfp_acosf$lsc) refers to funder.o(i.__mathlib_flt_infnan) for __mathlib_flt_infnan
    acosf_x.o(i.____hardfp_acosf$lsc) refers to _rserrno.o(.text) for __set_errno
    acosf_x.o(i.____softfp_acosf$lsc) refers (Special) to usenofp.o(x$fpl$usenofp) for __I$use$fp
    acosf_x.o(i.____softfp_acosf$lsc) refers to acosf_x.o(i.____hardfp_acosf$lsc) for ____hardfp_acosf$lsc
    acosf_x.o(i.__acosf$lsc) refers (Special) to usenofp.o(x$fpl$usenofp) for __I$use$fp
    acosf_x.o(i.__acosf$lsc) refers to acosf_x.o(i.____hardfp_acosf$lsc) for ____hardfp_acosf$lsc
    asin.o(i.__hardfp_asin) refers (Special) to usenofp.o(x$fpl$usenofp) for __I$use$fp
    asin.o(i.__hardfp_asin) refers to dunder.o(i.__mathlib_dbl_infnan) for __mathlib_dbl_infnan
    asin.o(i.__hardfp_asin) refers to dmul.o(x$fpl$dmul) for __aeabi_dmul
    asin.o(i.__hardfp_asin) refers to daddsub_clz.o(x$fpl$dadd) for __aeabi_dadd
    asin.o(i.__hardfp_asin) refers to _rserrno.o(.text) for __set_errno
    asin.o(i.__hardfp_asin) refers to dunder.o(i.__mathlib_dbl_invalid) for __mathlib_dbl_invalid
    asin.o(i.__hardfp_asin) refers to fpclassify.o(i.__ARM_fpclassify) for __ARM_fpclassify
    asin.o(i.__hardfp_asin) refers to dunder.o(i.__mathlib_dbl_underflow) for __mathlib_dbl_underflow
    asin.o(i.__hardfp_asin) refers to poly.o(i.__kernel_poly) for __kernel_poly
    asin.o(i.__hardfp_asin) refers to ddiv.o(x$fpl$ddiv) for __aeabi_ddiv
    asin.o(i.__hardfp_asin) refers to fabs.o(i.fabs) for fabs
    asin.o(i.__hardfp_asin) refers to daddsub_clz.o(x$fpl$drsb) for __aeabi_drsub
    asin.o(i.__hardfp_asin) refers to sqrt.o(i.sqrt) for sqrt
    asin.o(i.__hardfp_asin) refers to daddsub_clz.o(x$fpl$dsub) for __aeabi_dsub
    asin.o(i.__hardfp_asin) refers to basic.o(x$fpl$basic) for __aeabi_dneg
    asin.o(i.__hardfp_asin) refers to asin.o(.constdata) for .constdata
    asin.o(i.__softfp_asin) refers (Special) to usenofp.o(x$fpl$usenofp) for __I$use$fp
    asin.o(i.__softfp_asin) refers to asin.o(i.__hardfp_asin) for __hardfp_asin
    asin.o(i.asin) refers (Special) to usenofp.o(x$fpl$usenofp) for __I$use$fp
    asin.o(i.asin) refers to asin.o(i.__hardfp_asin) for __hardfp_asin
    asin.o(.constdata) refers (Special) to usenofp.o(x$fpl$usenofp) for __I$use$fp
    asin_x.o(i.____hardfp_asin$lsc) refers (Special) to usenofp.o(x$fpl$usenofp) for __I$use$fp
    asin_x.o(i.____hardfp_asin$lsc) refers to dunder.o(i.__mathlib_dbl_infnan) for __mathlib_dbl_infnan
    asin_x.o(i.____hardfp_asin$lsc) refers to dmul.o(x$fpl$dmul) for __aeabi_dmul
    asin_x.o(i.____hardfp_asin$lsc) refers to daddsub_clz.o(x$fpl$dadd) for __aeabi_dadd
    asin_x.o(i.____hardfp_asin$lsc) refers to _rserrno.o(.text) for __set_errno
    asin_x.o(i.____hardfp_asin$lsc) refers to poly.o(i.__kernel_poly) for __kernel_poly
    asin_x.o(i.____hardfp_asin$lsc) refers to ddiv.o(x$fpl$ddiv) for __aeabi_ddiv
    asin_x.o(i.____hardfp_asin$lsc) refers to fabs.o(i.fabs) for fabs
    asin_x.o(i.____hardfp_asin$lsc) refers to daddsub_clz.o(x$fpl$drsb) for __aeabi_drsub
    asin_x.o(i.____hardfp_asin$lsc) refers to sqrt.o(i.sqrt) for sqrt
    asin_x.o(i.____hardfp_asin$lsc) refers to daddsub_clz.o(x$fpl$dsub) for __aeabi_dsub
    asin_x.o(i.____hardfp_asin$lsc) refers to basic.o(x$fpl$basic) for __aeabi_dneg
    asin_x.o(i.____hardfp_asin$lsc) refers to asin_x.o(.constdata) for .constdata
    asin_x.o(i.____softfp_asin$lsc) refers (Special) to usenofp.o(x$fpl$usenofp) for __I$use$fp
    asin_x.o(i.____softfp_asin$lsc) refers to asin_x.o(i.____hardfp_asin$lsc) for ____hardfp_asin$lsc
    asin_x.o(i.__asin$lsc) refers (Special) to usenofp.o(x$fpl$usenofp) for __I$use$fp
    asin_x.o(i.__asin$lsc) refers to asin_x.o(i.____hardfp_asin$lsc) for ____hardfp_asin$lsc
    asin_x.o(.constdata) refers (Special) to usenofp.o(x$fpl$usenofp) for __I$use$fp
    asinf.o(i.__hardfp_asinf) refers (Special) to usenofp.o(x$fpl$usenofp) for __I$use$fp
    asinf.o(i.__hardfp_asinf) refers to sqrtf.o(i.sqrtf) for sqrtf
    asinf.o(i.__hardfp_asinf) refers to fpclassifyf.o(i.__ARM_fpclassifyf) for __ARM_fpclassifyf
    asinf.o(i.__hardfp_asinf) refers to funder.o(i.__mathlib_flt_underflow) for __mathlib_flt_underflow
    asinf.o(i.__hardfp_asinf) refers to funder.o(i.__mathlib_flt_infnan) for __mathlib_flt_infnan
    asinf.o(i.__hardfp_asinf) refers to _rserrno.o(.text) for __set_errno
    asinf.o(i.__hardfp_asinf) refers to funder.o(i.__mathlib_flt_invalid) for __mathlib_flt_invalid
    asinf.o(i.__softfp_asinf) refers (Special) to usenofp.o(x$fpl$usenofp) for __I$use$fp
    asinf.o(i.__softfp_asinf) refers to asinf.o(i.__hardfp_asinf) for __hardfp_asinf
    asinf.o(i.asinf) refers (Special) to usenofp.o(x$fpl$usenofp) for __I$use$fp
    asinf.o(i.asinf) refers to asinf.o(i.__hardfp_asinf) for __hardfp_asinf
    asinf_x.o(i.____hardfp_asinf$lsc) refers (Special) to usenofp.o(x$fpl$usenofp) for __I$use$fp
    asinf_x.o(i.____hardfp_asinf$lsc) refers to sqrtf.o(i.sqrtf) for sqrtf
    asinf_x.o(i.____hardfp_asinf$lsc) refers to funder.o(i.__mathlib_flt_infnan) for __mathlib_flt_infnan
    asinf_x.o(i.____hardfp_asinf$lsc) refers to _rserrno.o(.text) for __set_errno
    asinf_x.o(i.____softfp_asinf$lsc) refers (Special) to usenofp.o(x$fpl$usenofp) for __I$use$fp
    asinf_x.o(i.____softfp_asinf$lsc) refers to asinf_x.o(i.____hardfp_asinf$lsc) for ____hardfp_asinf$lsc
    asinf_x.o(i.__asinf$lsc) refers (Special) to usenofp.o(x$fpl$usenofp) for __I$use$fp
    asinf_x.o(i.__asinf$lsc) refers to asinf_x.o(i.____hardfp_asinf$lsc) for ____hardfp_asinf$lsc
    atan.o(i.__hardfp_atan) refers (Special) to usenofp.o(x$fpl$usenofp) for __I$use$fp
    atan.o(i.__hardfp_atan) refers to dunder.o(i.__mathlib_dbl_infnan) for __mathlib_dbl_infnan
    atan.o(i.__hardfp_atan) refers to fpclassify.o(i.__ARM_fpclassify) for __ARM_fpclassify
    atan.o(i.__hardfp_atan) refers to dunder.o(i.__mathlib_dbl_underflow) for __mathlib_dbl_underflow
    atan.o(i.__hardfp_atan) refers to fabs.o(i.fabs) for fabs
    atan.o(i.__hardfp_atan) refers to daddsub_clz.o(x$fpl$dadd) for __aeabi_dadd
    atan.o(i.__hardfp_atan) refers to dmul.o(x$fpl$dmul) for __aeabi_dmul
    atan.o(i.__hardfp_atan) refers to daddsub_clz.o(x$fpl$dsub) for __aeabi_dsub
    atan.o(i.__hardfp_atan) refers to ddiv.o(x$fpl$ddiv) for __aeabi_ddiv
    atan.o(i.__hardfp_atan) refers to poly.o(i.__kernel_poly) for __kernel_poly
    atan.o(i.__hardfp_atan) refers to daddsub_clz.o(x$fpl$drsb) for __aeabi_drsub
    atan.o(i.__hardfp_atan) refers to basic.o(x$fpl$basic) for __aeabi_dneg
    atan.o(i.__hardfp_atan) refers to atan.o(.constdata) for .constdata
    atan.o(i.__softfp_atan) refers (Special) to usenofp.o(x$fpl$usenofp) for __I$use$fp
    atan.o(i.__softfp_atan) refers to atan.o(i.__hardfp_atan) for __hardfp_atan
    atan.o(i.atan) refers (Special) to usenofp.o(x$fpl$usenofp) for __I$use$fp
    atan.o(i.atan) refers to atan.o(i.__hardfp_atan) for __hardfp_atan
    atan.o(.constdata) refers (Special) to usenofp.o(x$fpl$usenofp) for __I$use$fp
    atan_x.o(i.____hardfp_atan$lsc) refers (Special) to usenofp.o(x$fpl$usenofp) for __I$use$fp
    atan_x.o(i.____hardfp_atan$lsc) refers to dunder.o(i.__mathlib_dbl_infnan) for __mathlib_dbl_infnan
    atan_x.o(i.____hardfp_atan$lsc) refers to fabs.o(i.fabs) for fabs
    atan_x.o(i.____hardfp_atan$lsc) refers to daddsub_clz.o(x$fpl$dadd) for __aeabi_dadd
    atan_x.o(i.____hardfp_atan$lsc) refers to dmul.o(x$fpl$dmul) for __aeabi_dmul
    atan_x.o(i.____hardfp_atan$lsc) refers to daddsub_clz.o(x$fpl$dsub) for __aeabi_dsub
    atan_x.o(i.____hardfp_atan$lsc) refers to ddiv.o(x$fpl$ddiv) for __aeabi_ddiv
    atan_x.o(i.____hardfp_atan$lsc) refers to poly.o(i.__kernel_poly) for __kernel_poly
    atan_x.o(i.____hardfp_atan$lsc) refers to daddsub_clz.o(x$fpl$drsb) for __aeabi_drsub
    atan_x.o(i.____hardfp_atan$lsc) refers to basic.o(x$fpl$basic) for __aeabi_dneg
    atan_x.o(i.____hardfp_atan$lsc) refers to atan_x.o(.constdata) for .constdata
    atan_x.o(i.____softfp_atan$lsc) refers (Special) to usenofp.o(x$fpl$usenofp) for __I$use$fp
    atan_x.o(i.____softfp_atan$lsc) refers to atan_x.o(i.____hardfp_atan$lsc) for ____hardfp_atan$lsc
    atan_x.o(i.__atan$lsc) refers (Special) to usenofp.o(x$fpl$usenofp) for __I$use$fp
    atan_x.o(i.__atan$lsc) refers to atan_x.o(i.____hardfp_atan$lsc) for ____hardfp_atan$lsc
    atan_x.o(.constdata) refers (Special) to usenofp.o(x$fpl$usenofp) for __I$use$fp
    atanf.o(i.__hardfp_atanf) refers (Special) to usenofp.o(x$fpl$usenofp) for __I$use$fp
    atanf.o(i.__hardfp_atanf) refers to fpclassifyf.o(i.__ARM_fpclassifyf) for __ARM_fpclassifyf
    atanf.o(i.__hardfp_atanf) refers to funder.o(i.__mathlib_flt_underflow) for __mathlib_flt_underflow
    atanf.o(i.__hardfp_atanf) refers to funder.o(i.__mathlib_flt_infnan) for __mathlib_flt_infnan
    atanf.o(i.__softfp_atanf) refers (Special) to usenofp.o(x$fpl$usenofp) for __I$use$fp
    atanf.o(i.__softfp_atanf) refers to atanf.o(i.__hardfp_atanf) for __hardfp_atanf
    atanf.o(i.atanf) refers (Special) to usenofp.o(x$fpl$usenofp) for __I$use$fp
    atanf.o(i.atanf) refers to atanf.o(i.__hardfp_atanf) for __hardfp_atanf
    atanf_x.o(i.____hardfp_atanf$lsc) refers (Special) to usenofp.o(x$fpl$usenofp) for __I$use$fp
    atanf_x.o(i.____hardfp_atanf$lsc) refers to funder.o(i.__mathlib_flt_infnan) for __mathlib_flt_infnan
    atanf_x.o(i.____softfp_atanf$lsc) refers (Special) to usenofp.o(x$fpl$usenofp) for __I$use$fp
    atanf_x.o(i.____softfp_atanf$lsc) refers to atanf_x.o(i.____hardfp_atanf$lsc) for ____hardfp_atanf$lsc
    atanf_x.o(i.__atanf$lsc) refers (Special) to usenofp.o(x$fpl$usenofp) for __I$use$fp
    atanf_x.o(i.__atanf$lsc) refers to atanf_x.o(i.____hardfp_atanf$lsc) for ____hardfp_atanf$lsc
    cos.o(i.__hardfp_cos) refers (Special) to usenofp.o(x$fpl$usenofp) for __I$use$fp
    cos.o(i.__hardfp_cos) refers to _rserrno.o(.text) for __set_errno
    cos.o(i.__hardfp_cos) refers to dunder.o(i.__mathlib_dbl_invalid) for __mathlib_dbl_invalid
    cos.o(i.__hardfp_cos) refers to dunder.o(i.__mathlib_dbl_infnan) for __mathlib_dbl_infnan
    cos.o(i.__hardfp_cos) refers to rred.o(i.__ieee754_rem_pio2) for __ieee754_rem_pio2
    cos.o(i.__hardfp_cos) refers to sin_i.o(i.__kernel_sin) for __kernel_sin
    cos.o(i.__hardfp_cos) refers to cos_i.o(i.__kernel_cos) for __kernel_cos
    cos.o(i.__hardfp_cos) refers to basic.o(x$fpl$basic) for __aeabi_dneg
    cos.o(i.__softfp_cos) refers (Special) to usenofp.o(x$fpl$usenofp) for __I$use$fp
    cos.o(i.__softfp_cos) refers to cos.o(i.__hardfp_cos) for __hardfp_cos
    cos.o(i.cos) refers (Special) to usenofp.o(x$fpl$usenofp) for __I$use$fp
    cos.o(i.cos) refers to cos.o(i.__hardfp_cos) for __hardfp_cos
    cos_x.o(i.____hardfp_cos$lsc) refers (Special) to usenofp.o(x$fpl$usenofp) for __I$use$fp
    cos_x.o(i.____hardfp_cos$lsc) refers to _rserrno.o(.text) for __set_errno
    cos_x.o(i.____hardfp_cos$lsc) refers to dunder.o(i.__mathlib_dbl_infnan) for __mathlib_dbl_infnan
    cos_x.o(i.____hardfp_cos$lsc) refers to rred.o(i.__ieee754_rem_pio2) for __ieee754_rem_pio2
    cos_x.o(i.____hardfp_cos$lsc) refers to sin_i.o(i.__kernel_sin) for __kernel_sin
    cos_x.o(i.____hardfp_cos$lsc) refers to cos_i.o(i.__kernel_cos) for __kernel_cos
    cos_x.o(i.____hardfp_cos$lsc) refers to basic.o(x$fpl$basic) for __aeabi_dneg
    cos_x.o(i.____softfp_cos$lsc) refers (Special) to usenofp.o(x$fpl$usenofp) for __I$use$fp
    cos_x.o(i.____softfp_cos$lsc) refers to cos_x.o(i.____hardfp_cos$lsc) for ____hardfp_cos$lsc
    cos_x.o(i.__cos$lsc) refers (Special) to usenofp.o(x$fpl$usenofp) for __I$use$fp
    cos_x.o(i.__cos$lsc) refers to cos_x.o(i.____hardfp_cos$lsc) for ____hardfp_cos$lsc
    cosf.o(i.__hardfp_cosf) refers (Special) to usenofp.o(x$fpl$usenofp) for __I$use$fp
    cosf.o(i.__hardfp_cosf) refers to rredf.o(i.__mathlib_rredf2) for __mathlib_rredf2
    cosf.o(i.__hardfp_cosf) refers to _rserrno.o(.text) for __set_errno
    cosf.o(i.__hardfp_cosf) refers to funder.o(i.__mathlib_flt_invalid) for __mathlib_flt_invalid
    cosf.o(i.__hardfp_cosf) refers to funder.o(i.__mathlib_flt_infnan) for __mathlib_flt_infnan
    cosf.o(i.__softfp_cosf) refers (Special) to usenofp.o(x$fpl$usenofp) for __I$use$fp
    cosf.o(i.__softfp_cosf) refers to cosf.o(i.__hardfp_cosf) for __hardfp_cosf
    cosf.o(i.cosf) refers (Special) to usenofp.o(x$fpl$usenofp) for __I$use$fp
    cosf.o(i.cosf) refers to cosf.o(i.__hardfp_cosf) for __hardfp_cosf
    cosf_x.o(i.____hardfp_cosf$lsc) refers (Special) to usenofp.o(x$fpl$usenofp) for __I$use$fp
    cosf_x.o(i.____hardfp_cosf$lsc) refers to rredf.o(i.__mathlib_rredf2) for __mathlib_rredf2
    cosf_x.o(i.____hardfp_cosf$lsc) refers to _rserrno.o(.text) for __set_errno
    cosf_x.o(i.____hardfp_cosf$lsc) refers to funder.o(i.__mathlib_flt_infnan) for __mathlib_flt_infnan
    cosf_x.o(i.____softfp_cosf$lsc) refers (Special) to usenofp.o(x$fpl$usenofp) for __I$use$fp
    cosf_x.o(i.____softfp_cosf$lsc) refers to cosf_x.o(i.____hardfp_cosf$lsc) for ____hardfp_cosf$lsc
    cosf_x.o(i.__cosf$lsc) refers (Special) to usenofp.o(x$fpl$usenofp) for __I$use$fp
    cosf_x.o(i.__cosf$lsc) refers to cosf_x.o(i.____hardfp_cosf$lsc) for ____hardfp_cosf$lsc
    fabs.o(i.__hardfp_fabs) refers (Special) to usenofp.o(x$fpl$usenofp) for __I$use$fp
    fabs.o(i.__softfp_fabs) refers (Special) to usenofp.o(x$fpl$usenofp) for __I$use$fp
    fabs.o(i.fabs) refers (Special) to usenofp.o(x$fpl$usenofp) for __I$use$fp
    pow.o(i.__hardfp_pow) refers (Special) to usenofp.o(x$fpl$usenofp) for __I$use$fp
    pow.o(i.__hardfp_pow) refers to dunder.o(i.__mathlib_dbl_infnan2) for __mathlib_dbl_infnan2
    pow.o(i.__hardfp_pow) refers to _rserrno.o(.text) for __set_errno
    pow.o(i.__hardfp_pow) refers to dunder.o(i.__mathlib_dbl_divzero) for __mathlib_dbl_divzero
    pow.o(i.__hardfp_pow) refers to basic.o(x$fpl$basic) for __aeabi_dneg
    pow.o(i.__hardfp_pow) refers to dunder.o(i.__mathlib_dbl_overflow) for __mathlib_dbl_overflow
    pow.o(i.__hardfp_pow) refers to ddiv.o(x$fpl$ddiv) for __aeabi_ddiv
    pow.o(i.__hardfp_pow) refers to sqrt.o(i.sqrt) for sqrt
    pow.o(i.__hardfp_pow) refers to fabs.o(i.fabs) for fabs
    pow.o(i.__hardfp_pow) refers to dflt_clz.o(x$fpl$dflt) for __aeabi_i2d
    pow.o(i.__hardfp_pow) refers to dunder.o(i.__mathlib_dbl_invalid) for __mathlib_dbl_invalid
    pow.o(i.__hardfp_pow) refers to dmul.o(x$fpl$dmul) for __aeabi_dmul
    pow.o(i.__hardfp_pow) refers to dunder.o(i.__mathlib_dbl_underflow) for __mathlib_dbl_underflow
    pow.o(i.__hardfp_pow) refers to daddsub_clz.o(x$fpl$dsub) for __aeabi_dsub
    pow.o(i.__hardfp_pow) refers to daddsub_clz.o(x$fpl$drsb) for __aeabi_drsub
    pow.o(i.__hardfp_pow) refers to qnan.o(.constdata) for __mathlib_zero
    pow.o(i.__hardfp_pow) refers to daddsub_clz.o(x$fpl$dadd) for __aeabi_dadd
    pow.o(i.__hardfp_pow) refers to poly.o(i.__kernel_poly) for __kernel_poly
    pow.o(i.__hardfp_pow) refers to pow.o(.constdata) for .constdata
    pow.o(i.__hardfp_pow) refers to drleqf.o(x$fpl$drleqf) for __aeabi_cdrcmple
    pow.o(i.__hardfp_pow) refers to scalbn.o(x$fpl$scalbn) for __ARM_scalbn
    pow.o(i.__hardfp_pow) refers to fpclassify.o(i.__ARM_fpclassify) for __ARM_fpclassify
    pow.o(i.__softfp_pow) refers (Special) to usenofp.o(x$fpl$usenofp) for __I$use$fp
    pow.o(i.__softfp_pow) refers to pow.o(i.__hardfp_pow) for __hardfp_pow
    pow.o(i.pow) refers (Special) to usenofp.o(x$fpl$usenofp) for __I$use$fp
    pow.o(i.pow) refers to pow.o(i.__hardfp_pow) for __hardfp_pow
    pow.o(.constdata) refers (Special) to usenofp.o(x$fpl$usenofp) for __I$use$fp
    pow_x.o(i.____hardfp_pow$lsc) refers (Special) to usenofp.o(x$fpl$usenofp) for __I$use$fp
    pow_x.o(i.____hardfp_pow$lsc) refers to dunder.o(i.__mathlib_dbl_infnan2) for __mathlib_dbl_infnan2
    pow_x.o(i.____hardfp_pow$lsc) refers to _rserrno.o(.text) for __set_errno
    pow_x.o(i.____hardfp_pow$lsc) refers to basic.o(x$fpl$basic) for __aeabi_dneg
    pow_x.o(i.____hardfp_pow$lsc) refers to ddiv.o(x$fpl$ddiv) for __aeabi_ddiv
    pow_x.o(i.____hardfp_pow$lsc) refers to sqrt.o(i.sqrt) for sqrt
    pow_x.o(i.____hardfp_pow$lsc) refers to fabs.o(i.fabs) for fabs
    pow_x.o(i.____hardfp_pow$lsc) refers to dflt_clz.o(x$fpl$dflt) for __aeabi_i2d
    pow_x.o(i.____hardfp_pow$lsc) refers to dmul.o(x$fpl$dmul) for __aeabi_dmul
    pow_x.o(i.____hardfp_pow$lsc) refers to daddsub_clz.o(x$fpl$dsub) for __aeabi_dsub
    pow_x.o(i.____hardfp_pow$lsc) refers to daddsub_clz.o(x$fpl$drsb) for __aeabi_drsub
    pow_x.o(i.____hardfp_pow$lsc) refers to qnan.o(.constdata) for __mathlib_zero
    pow_x.o(i.____hardfp_pow$lsc) refers to daddsub_clz.o(x$fpl$dadd) for __aeabi_dadd
    pow_x.o(i.____hardfp_pow$lsc) refers to poly.o(i.__kernel_poly) for __kernel_poly
    pow_x.o(i.____hardfp_pow$lsc) refers to pow_x.o(.constdata) for .constdata
    pow_x.o(i.____hardfp_pow$lsc) refers to drleqf.o(x$fpl$drleqf) for __aeabi_cdrcmple
    pow_x.o(i.____hardfp_pow$lsc) refers to scalbn.o(x$fpl$scalbn) for __ARM_scalbn
    pow_x.o(i.____softfp_pow$lsc) refers (Special) to usenofp.o(x$fpl$usenofp) for __I$use$fp
    pow_x.o(i.____softfp_pow$lsc) refers to pow_x.o(i.____hardfp_pow$lsc) for ____hardfp_pow$lsc
    pow_x.o(i.__pow$lsc) refers (Special) to usenofp.o(x$fpl$usenofp) for __I$use$fp
    pow_x.o(i.__pow$lsc) refers to pow_x.o(i.____hardfp_pow$lsc) for ____hardfp_pow$lsc
    pow_x.o(.constdata) refers (Special) to usenofp.o(x$fpl$usenofp) for __I$use$fp
    sin.o(i.__hardfp_sin) refers (Special) to usenofp.o(x$fpl$usenofp) for __I$use$fp
    sin.o(i.__hardfp_sin) refers to _rserrno.o(.text) for __set_errno
    sin.o(i.__hardfp_sin) refers to dunder.o(i.__mathlib_dbl_invalid) for __mathlib_dbl_invalid
    sin.o(i.__hardfp_sin) refers to dunder.o(i.__mathlib_dbl_infnan) for __mathlib_dbl_infnan
    sin.o(i.__hardfp_sin) refers to rred.o(i.__ieee754_rem_pio2) for __ieee754_rem_pio2
    sin.o(i.__hardfp_sin) refers to cos_i.o(i.__kernel_cos) for __kernel_cos
    sin.o(i.__hardfp_sin) refers to basic.o(x$fpl$basic) for __aeabi_dneg
    sin.o(i.__hardfp_sin) refers to sin_i.o(i.__kernel_sin) for __kernel_sin
    sin.o(i.__softfp_sin) refers (Special) to usenofp.o(x$fpl$usenofp) for __I$use$fp
    sin.o(i.__softfp_sin) refers to sin.o(i.__hardfp_sin) for __hardfp_sin
    sin.o(i.sin) refers (Special) to usenofp.o(x$fpl$usenofp) for __I$use$fp
    sin.o(i.sin) refers to sin.o(i.__hardfp_sin) for __hardfp_sin
    sin_x.o(i.____hardfp_sin$lsc) refers (Special) to usenofp.o(x$fpl$usenofp) for __I$use$fp
    sin_x.o(i.____hardfp_sin$lsc) refers to _rserrno.o(.text) for __set_errno
    sin_x.o(i.____hardfp_sin$lsc) refers to dunder.o(i.__mathlib_dbl_infnan) for __mathlib_dbl_infnan
    sin_x.o(i.____hardfp_sin$lsc) refers to rred.o(i.__ieee754_rem_pio2) for __ieee754_rem_pio2
    sin_x.o(i.____hardfp_sin$lsc) refers to cos_i.o(i.__kernel_cos) for __kernel_cos
    sin_x.o(i.____hardfp_sin$lsc) refers to basic.o(x$fpl$basic) for __aeabi_dneg
    sin_x.o(i.____hardfp_sin$lsc) refers to sin_i.o(i.__kernel_sin) for __kernel_sin
    sin_x.o(i.____softfp_sin$lsc) refers (Special) to usenofp.o(x$fpl$usenofp) for __I$use$fp
    sin_x.o(i.____softfp_sin$lsc) refers to sin_x.o(i.____hardfp_sin$lsc) for ____hardfp_sin$lsc
    sin_x.o(i.__sin$lsc) refers (Special) to usenofp.o(x$fpl$usenofp) for __I$use$fp
    sin_x.o(i.__sin$lsc) refers to sin_x.o(i.____hardfp_sin$lsc) for ____hardfp_sin$lsc
    sinf.o(i.__hardfp_sinf) refers (Special) to usenofp.o(x$fpl$usenofp) for __I$use$fp
    sinf.o(i.__hardfp_sinf) refers to rredf.o(i.__mathlib_rredf2) for __mathlib_rredf2
    sinf.o(i.__hardfp_sinf) refers to fpclassifyf.o(i.__ARM_fpclassifyf) for __ARM_fpclassifyf
    sinf.o(i.__hardfp_sinf) refers to funder.o(i.__mathlib_flt_underflow) for __mathlib_flt_underflow
    sinf.o(i.__hardfp_sinf) refers to _rserrno.o(.text) for __set_errno
    sinf.o(i.__hardfp_sinf) refers to funder.o(i.__mathlib_flt_invalid) for __mathlib_flt_invalid
    sinf.o(i.__hardfp_sinf) refers to funder.o(i.__mathlib_flt_infnan) for __mathlib_flt_infnan
    sinf.o(i.__softfp_sinf) refers (Special) to usenofp.o(x$fpl$usenofp) for __I$use$fp
    sinf.o(i.__softfp_sinf) refers to sinf.o(i.__hardfp_sinf) for __hardfp_sinf
    sinf.o(i.sinf) refers (Special) to usenofp.o(x$fpl$usenofp) for __I$use$fp
    sinf.o(i.sinf) refers to sinf.o(i.__hardfp_sinf) for __hardfp_sinf
    sinf_x.o(i.____hardfp_sinf$lsc) refers (Special) to usenofp.o(x$fpl$usenofp) for __I$use$fp
    sinf_x.o(i.____hardfp_sinf$lsc) refers to rredf.o(i.__mathlib_rredf2) for __mathlib_rredf2
    sinf_x.o(i.____hardfp_sinf$lsc) refers to _rserrno.o(.text) for __set_errno
    sinf_x.o(i.____hardfp_sinf$lsc) refers to funder.o(i.__mathlib_flt_infnan) for __mathlib_flt_infnan
    sinf_x.o(i.____softfp_sinf$lsc) refers (Special) to usenofp.o(x$fpl$usenofp) for __I$use$fp
    sinf_x.o(i.____softfp_sinf$lsc) refers to sinf_x.o(i.____hardfp_sinf$lsc) for ____hardfp_sinf$lsc
    sinf_x.o(i.__sinf$lsc) refers (Special) to usenofp.o(x$fpl$usenofp) for __I$use$fp
    sinf_x.o(i.__sinf$lsc) refers to sinf_x.o(i.____hardfp_sinf$lsc) for ____hardfp_sinf$lsc
    sqrt.o(i.__hardfp_sqrt) refers (Special) to usenofp.o(x$fpl$usenofp) for __I$use$fp
    sqrt.o(i.__hardfp_sqrt) refers to dsqrt_umaal.o(x$fpl$dsqrt) for _dsqrt
    sqrt.o(i.__hardfp_sqrt) refers to _rserrno.o(.text) for __set_errno
    sqrt.o(i.__softfp_sqrt) refers (Special) to usenofp.o(x$fpl$usenofp) for __I$use$fp
    sqrt.o(i.__softfp_sqrt) refers to dsqrt_umaal.o(x$fpl$dsqrt) for _dsqrt
    sqrt.o(i.__softfp_sqrt) refers to _rserrno.o(.text) for __set_errno
    sqrt.o(i.sqrt) refers (Special) to usenofp.o(x$fpl$usenofp) for __I$use$fp
    sqrt.o(i.sqrt) refers to dsqrt_umaal.o(x$fpl$dsqrt) for _dsqrt
    sqrt.o(i.sqrt) refers to _rserrno.o(.text) for __set_errno
    sqrt_x.o(i.____hardfp_sqrt$lsc) refers (Special) to usenofp.o(x$fpl$usenofp) for __I$use$fp
    sqrt_x.o(i.____hardfp_sqrt$lsc) refers to dleqf.o(x$fpl$dleqf) for __aeabi_cdcmple
    sqrt_x.o(i.____hardfp_sqrt$lsc) refers to _rserrno.o(.text) for __set_errno
    sqrt_x.o(i.____hardfp_sqrt$lsc) refers to dsqrt_umaal.o(x$fpl$dsqrt) for _dsqrt
    sqrt_x.o(i.____softfp_sqrt$lsc) refers (Special) to usenofp.o(x$fpl$usenofp) for __I$use$fp
    sqrt_x.o(i.____softfp_sqrt$lsc) refers to dleqf.o(x$fpl$dleqf) for __aeabi_cdcmple
    sqrt_x.o(i.____softfp_sqrt$lsc) refers to _rserrno.o(.text) for __set_errno
    sqrt_x.o(i.____softfp_sqrt$lsc) refers to dsqrt_umaal.o(x$fpl$dsqrt) for _dsqrt
    sqrt_x.o(i.__sqrt$lsc) refers (Special) to usenofp.o(x$fpl$usenofp) for __I$use$fp
    sqrt_x.o(i.__sqrt$lsc) refers to dleqf.o(x$fpl$dleqf) for __aeabi_cdcmple
    sqrt_x.o(i.__sqrt$lsc) refers to _rserrno.o(.text) for __set_errno
    sqrt_x.o(i.__sqrt$lsc) refers to dsqrt_umaal.o(x$fpl$dsqrt) for _dsqrt
    sqrtf.o(i.__hardfp_sqrtf) refers (Special) to usenofp.o(x$fpl$usenofp) for __I$use$fp
    sqrtf.o(i.__hardfp_sqrtf) refers to _rserrno.o(.text) for __set_errno
    sqrtf.o(i.__softfp_sqrtf) refers (Special) to usenofp.o(x$fpl$usenofp) for __I$use$fp
    sqrtf.o(i.__softfp_sqrtf) refers to _rserrno.o(.text) for __set_errno
    sqrtf.o(i.sqrtf) refers (Special) to usenofp.o(x$fpl$usenofp) for __I$use$fp
    sqrtf.o(i.sqrtf) refers to _rserrno.o(.text) for __set_errno
    sqrtf_x.o(i.____hardfp_sqrtf$lsc) refers (Special) to usenofp.o(x$fpl$usenofp) for __I$use$fp
    sqrtf_x.o(i.____hardfp_sqrtf$lsc) refers to _rserrno.o(.text) for __set_errno
    sqrtf_x.o(i.____softfp_sqrtf$lsc) refers (Special) to usenofp.o(x$fpl$usenofp) for __I$use$fp
    sqrtf_x.o(i.____softfp_sqrtf$lsc) refers to _rserrno.o(.text) for __set_errno
    sqrtf_x.o(i.__sqrtf$lsc) refers (Special) to usenofp.o(x$fpl$usenofp) for __I$use$fp
    sqrtf_x.o(i.__sqrtf$lsc) refers to _rserrno.o(.text) for __set_errno
    __rtentry.o(.ARM.Collect$$rtentry$$00000000) refers (Special) to __rtentry2.o(.ARM.Collect$$rtentry$$0000000A) for __rt_entry_li
    __rtentry.o(.ARM.Collect$$rtentry$$00000000) refers (Special) to __rtentry2.o(.ARM.Collect$$rtentry$$0000000D) for __rt_entry_main
    __rtentry.o(.ARM.Collect$$rtentry$$00000000) refers (Special) to __rtentry2.o(.ARM.Collect$$rtentry$$0000000C) for __rt_entry_postli_1
    __rtentry.o(.ARM.Collect$$rtentry$$00000000) refers (Special) to __rtentry2.o(.ARM.Collect$$rtentry$$00000009) for __rt_entry_postsh_1
    __rtentry.o(.ARM.Collect$$rtentry$$00000000) refers (Special) to __rtentry2.o(.ARM.Collect$$rtentry$$00000002) for __rt_entry_presh_1
    __rtentry.o(.ARM.Collect$$rtentry$$00000000) refers (Special) to __rtentry4.o(.ARM.Collect$$rtentry$$00000004) for __rt_entry_sh
    _rserrno.o(.text) refers to rt_errno_addr_intlibspace.o(.text) for __aeabi_errno_addr
    dcmpi.o(x$fpl$dcmpinf) refers (Special) to usenofp.o(x$fpl$usenofp) for __I$use$fp
    dnaninf.o(x$fpl$dnaninf) refers (Special) to usenofp.o(x$fpl$usenofp) for __I$use$fp
    dretinf.o(x$fpl$dretinf) refers (Special) to usenofp.o(x$fpl$usenofp) for __I$use$fp
    dsqrt_umaal.o(x$fpl$dsqrt) refers (Special) to usenofp.o(x$fpl$usenofp) for __I$use$fp
    dsqrt_umaal.o(x$fpl$dsqrt) refers to dnaninf.o(x$fpl$dnaninf) for __fpl_dnaninf
    fnaninf.o(x$fpl$fnaninf) refers (Special) to usenofp.o(x$fpl$usenofp) for __I$use$fp
    fretinf.o(x$fpl$fretinf) refers (Special) to usenofp.o(x$fpl$usenofp) for __I$use$fp
    scalbn.o(x$fpl$scalbn) refers (Special) to usenofp.o(x$fpl$usenofp) for __I$use$fp
    scalbn.o(x$fpl$scalbn) refers to dcheck1.o(x$fpl$dcheck1) for __fpl_dcheck_NaN1
    cos_i.o(i.__kernel_cos) refers (Special) to usenofp.o(x$fpl$usenofp) for __I$use$fp
    cos_i.o(i.__kernel_cos) refers to dfix.o(x$fpl$dfix) for __aeabi_d2iz
    cos_i.o(i.__kernel_cos) refers to dmul.o(x$fpl$dmul) for __aeabi_dmul
    cos_i.o(i.__kernel_cos) refers to poly.o(i.__kernel_poly) for __kernel_poly
    cos_i.o(i.__kernel_cos) refers to daddsub_clz.o(x$fpl$dsub) for __aeabi_dsub
    cos_i.o(i.__kernel_cos) refers to daddsub_clz.o(x$fpl$drsb) for __aeabi_drsub
    cos_i.o(i.__kernel_cos) refers to cos_i.o(.constdata) for .constdata
    cos_i.o(.constdata) refers (Special) to usenofp.o(x$fpl$usenofp) for __I$use$fp
    dunder.o(i.__mathlib_dbl_divzero) refers to ddiv.o(x$fpl$ddiv) for __aeabi_ddiv
    dunder.o(i.__mathlib_dbl_infnan) refers to daddsub_clz.o(x$fpl$dadd) for __aeabi_dadd
    dunder.o(i.__mathlib_dbl_infnan2) refers to daddsub_clz.o(x$fpl$dadd) for __aeabi_dadd
    dunder.o(i.__mathlib_dbl_invalid) refers to ddiv.o(x$fpl$ddiv) for __aeabi_ddiv
    dunder.o(i.__mathlib_dbl_overflow) refers to dmul.o(x$fpl$dmul) for __aeabi_dmul
    dunder.o(i.__mathlib_dbl_posinfnan) refers to dmul.o(x$fpl$dmul) for __aeabi_dmul
    dunder.o(i.__mathlib_dbl_underflow) refers to dmul.o(x$fpl$dmul) for __aeabi_dmul
    fpclassify.o(i.__ARM_fpclassify) refers (Special) to usenofp.o(x$fpl$usenofp) for __I$use$fp
    fpclassifyf.o(i.__ARM_fpclassifyf) refers (Special) to usenofp.o(x$fpl$usenofp) for __I$use$fp
    poly.o(i.__kernel_poly) refers (Special) to usenofp.o(x$fpl$usenofp) for __I$use$fp
    poly.o(i.__kernel_poly) refers to dmul.o(x$fpl$dmul) for __aeabi_dmul
    poly.o(i.__kernel_poly) refers to daddsub_clz.o(x$fpl$dadd) for __aeabi_dadd
    qnan.o(.constdata) refers (Special) to usenofp.o(x$fpl$usenofp) for __I$use$fp
    rred.o(i.__ieee754_rem_pio2) refers (Special) to usenofp.o(x$fpl$usenofp) for __I$use$fp
    rred.o(i.__ieee754_rem_pio2) refers to daddsub_clz.o(x$fpl$dsub) for __aeabi_dsub
    rred.o(i.__ieee754_rem_pio2) refers to daddsub_clz.o(x$fpl$dadd) for __aeabi_dadd
    rred.o(i.__ieee754_rem_pio2) refers to fabs.o(i.fabs) for fabs
    rred.o(i.__ieee754_rem_pio2) refers to dmul.o(x$fpl$dmul) for __aeabi_dmul
    rred.o(i.__ieee754_rem_pio2) refers to dfix.o(x$fpl$dfix) for __aeabi_d2iz
    rred.o(i.__ieee754_rem_pio2) refers to dflt_clz.o(x$fpl$dflt) for __aeabi_i2d
    rred.o(i.__ieee754_rem_pio2) refers to daddsub_clz.o(x$fpl$drsb) for __aeabi_drsub
    rred.o(i.__ieee754_rem_pio2) refers to basic.o(x$fpl$basic) for __aeabi_dneg
    rred.o(i.__ieee754_rem_pio2) refers to dflt_clz.o(x$fpl$dfltu) for __aeabi_ui2d
    rred.o(i.__ieee754_rem_pio2) refers to rred.o(.constdata) for .constdata
    rred.o(i.__use_accurate_range_reduction) refers (Special) to usenofp.o(x$fpl$usenofp) for __I$use$fp
    rred.o(.constdata) refers (Special) to usenofp.o(x$fpl$usenofp) for __I$use$fp
    rredf.o(i.__mathlib_rredf2) refers (Special) to usenofp.o(x$fpl$usenofp) for __I$use$fp
    rredf.o(i.__mathlib_rredf2) refers to rredf.o(.constdata) for .constdata
    rredf.o(.constdata) refers (Special) to usenofp.o(x$fpl$usenofp) for __I$use$fp
    sin_i.o(i.__kernel_sin) refers (Special) to usenofp.o(x$fpl$usenofp) for __I$use$fp
    sin_i.o(i.__kernel_sin) refers to fpclassify.o(i.__ARM_fpclassify) for __ARM_fpclassify
    sin_i.o(i.__kernel_sin) refers to dunder.o(i.__mathlib_dbl_underflow) for __mathlib_dbl_underflow
    sin_i.o(i.__kernel_sin) refers to dmul.o(x$fpl$dmul) for __aeabi_dmul
    sin_i.o(i.__kernel_sin) refers to poly.o(i.__kernel_poly) for __kernel_poly
    sin_i.o(i.__kernel_sin) refers to daddsub_clz.o(x$fpl$dsub) for __aeabi_dsub
    sin_i.o(i.__kernel_sin) refers to daddsub_clz.o(x$fpl$drsb) for __aeabi_drsub
    sin_i.o(i.__kernel_sin) refers to daddsub_clz.o(x$fpl$dadd) for __aeabi_dadd
    sin_i.o(i.__kernel_sin) refers to sin_i.o(.constdata) for .constdata
    sin_i.o(.constdata) refers (Special) to usenofp.o(x$fpl$usenofp) for __I$use$fp
    sin_i_x.o(i.____kernel_sin$lsc) refers (Special) to usenofp.o(x$fpl$usenofp) for __I$use$fp
    sin_i_x.o(i.____kernel_sin$lsc) refers to dmul.o(x$fpl$dmul) for __aeabi_dmul
    sin_i_x.o(i.____kernel_sin$lsc) refers to poly.o(i.__kernel_poly) for __kernel_poly
    sin_i_x.o(i.____kernel_sin$lsc) refers to daddsub_clz.o(x$fpl$dsub) for __aeabi_dsub
    sin_i_x.o(i.____kernel_sin$lsc) refers to daddsub_clz.o(x$fpl$drsb) for __aeabi_drsub
    sin_i_x.o(i.____kernel_sin$lsc) refers to daddsub_clz.o(x$fpl$dadd) for __aeabi_dadd
    sin_i_x.o(i.____kernel_sin$lsc) refers to sin_i_x.o(.constdata) for .constdata
    sin_i_x.o(.constdata) refers (Special) to usenofp.o(x$fpl$usenofp) for __I$use$fp
    __rtentry2.o(.ARM.Collect$$rtentry$$00000008) refers to boardinit2.o(.text) for _platform_post_stackheap_init
    __rtentry2.o(.ARM.Collect$$rtentry$$0000000A) refers to libinit.o(.ARM.Collect$$libinit$$00000000) for __rt_lib_init
    __rtentry2.o(.ARM.Collect$$rtentry$$0000000B) refers to boardinit3.o(.text) for _platform_post_lib_init
    __rtentry2.o(.ARM.Collect$$rtentry$$0000000D) refers to main.o(.text) for main
    __rtentry2.o(.ARM.Collect$$rtentry$$0000000D) refers to exit.o(.text) for exit
    __rtentry2.o(.ARM.exidx) refers to __rtentry2.o(.ARM.Collect$$rtentry$$00000001) for .ARM.Collect$$rtentry$$00000001
    __rtentry2.o(.ARM.exidx) refers to __rtentry2.o(.ARM.Collect$$rtentry$$00000008) for .ARM.Collect$$rtentry$$00000008
    __rtentry2.o(.ARM.exidx) refers to __rtentry2.o(.ARM.Collect$$rtentry$$0000000A) for .ARM.Collect$$rtentry$$0000000A
    __rtentry2.o(.ARM.exidx) refers to __rtentry2.o(.ARM.Collect$$rtentry$$0000000B) for .ARM.Collect$$rtentry$$0000000B
    __rtentry2.o(.ARM.exidx) refers to __rtentry2.o(.ARM.Collect$$rtentry$$0000000D) for .ARM.Collect$$rtentry$$0000000D
    __rtentry4.o(.ARM.Collect$$rtentry$$00000004) refers to sys_stackheap_outer.o(.text) for __user_setup_stackheap
    __rtentry4.o(.ARM.exidx) refers to __rtentry4.o(.ARM.Collect$$rtentry$$00000004) for .ARM.Collect$$rtentry$$00000004
    rt_errno_addr.o(.text) refers to rt_errno_addr.o(.bss) for __aeabi_errno_addr_data
    rt_errno_addr_intlibspace.o(.text) refers to libspace.o(.bss) for __libspace_start
    dcheck1.o(x$fpl$dcheck1) refers (Special) to usenofp.o(x$fpl$usenofp) for __I$use$fp
    dcheck1.o(x$fpl$dcheck1) refers to retnan.o(x$fpl$retnan) for __fpl_return_NaN
    libspace.o(.text) refers to libspace.o(.bss) for __libspace_start
    sys_stackheap_outer.o(.text) refers to libspace.o(.text) for __user_perproc_libspace
    sys_stackheap_outer.o(.text) refers to startup_stm32f4xx.o(.text) for __user_initial_stackheap
    exit.o(.text) refers to rtexit.o(.ARM.Collect$$rtexit$$00000000) for __rt_exit
    libinit.o(.ARM.Collect$$libinit$$00000000) refers (Special) to libinit2.o(.ARM.Collect$$libinit$$0000002E) for __rt_lib_init_alloca_1
    libinit.o(.ARM.Collect$$libinit$$00000000) refers (Special) to libinit2.o(.ARM.Collect$$libinit$$0000002C) for __rt_lib_init_argv_1
    libinit.o(.ARM.Collect$$libinit$$00000000) refers (Special) to libinit2.o(.ARM.Collect$$libinit$$0000001B) for __rt_lib_init_atexit_1
    libinit.o(.ARM.Collect$$libinit$$00000000) refers (Special) to libinit2.o(.ARM.Collect$$libinit$$00000021) for __rt_lib_init_clock_1
    libinit.o(.ARM.Collect$$libinit$$00000000) refers (Special) to libinit2.o(.ARM.Collect$$libinit$$00000032) for __rt_lib_init_cpp_1
    libinit.o(.ARM.Collect$$libinit$$00000000) refers (Special) to libinit2.o(.ARM.Collect$$libinit$$00000030) for __rt_lib_init_exceptions_1
    libinit.o(.ARM.Collect$$libinit$$00000000) refers (Special) to libinit2.o(.ARM.Collect$$libinit$$00000001) for __rt_lib_init_fp_1
    libinit.o(.ARM.Collect$$libinit$$00000000) refers (Special) to libinit2.o(.ARM.Collect$$libinit$$0000001F) for __rt_lib_init_fp_trap_1
    libinit.o(.ARM.Collect$$libinit$$00000000) refers (Special) to libinit2.o(.ARM.Collect$$libinit$$00000023) for __rt_lib_init_getenv_1
    libinit.o(.ARM.Collect$$libinit$$00000000) refers (Special) to libinit2.o(.ARM.Collect$$libinit$$0000000A) for __rt_lib_init_heap_1
    libinit.o(.ARM.Collect$$libinit$$00000000) refers (Special) to libinit2.o(.ARM.Collect$$libinit$$00000011) for __rt_lib_init_lc_collate_1
    libinit.o(.ARM.Collect$$libinit$$00000000) refers (Special) to libinit2.o(.ARM.Collect$$libinit$$00000013) for __rt_lib_init_lc_ctype_1
    libinit.o(.ARM.Collect$$libinit$$00000000) refers (Special) to libinit2.o(.ARM.Collect$$libinit$$00000015) for __rt_lib_init_lc_monetary_1
    libinit.o(.ARM.Collect$$libinit$$00000000) refers (Special) to libinit2.o(.ARM.Collect$$libinit$$00000017) for __rt_lib_init_lc_numeric_1
    libinit.o(.ARM.Collect$$libinit$$00000000) refers (Special) to libinit2.o(.ARM.Collect$$libinit$$00000019) for __rt_lib_init_lc_time_1
    libinit.o(.ARM.Collect$$libinit$$00000000) refers (Special) to libinit2.o(.ARM.Collect$$libinit$$00000004) for __rt_lib_init_preinit_1
    libinit.o(.ARM.Collect$$libinit$$00000000) refers (Special) to libinit2.o(.ARM.Collect$$libinit$$0000000E) for __rt_lib_init_rand_1
    libinit.o(.ARM.Collect$$libinit$$00000000) refers (Special) to libinit2.o(.ARM.Collect$$libinit$$00000033) for __rt_lib_init_return
    libinit.o(.ARM.Collect$$libinit$$00000000) refers (Special) to libinit2.o(.ARM.Collect$$libinit$$0000001D) for __rt_lib_init_signal_1
    libinit.o(.ARM.Collect$$libinit$$00000000) refers (Special) to libinit2.o(.ARM.Collect$$libinit$$00000025) for __rt_lib_init_stdio_1
    libinit.o(.ARM.Collect$$libinit$$00000000) refers (Special) to libinit2.o(.ARM.Collect$$libinit$$0000000C) for __rt_lib_init_user_alloc_1
    retnan.o(x$fpl$retnan) refers (Special) to usenofp.o(x$fpl$usenofp) for __I$use$fp
    retnan.o(x$fpl$retnan) refers to trapv.o(x$fpl$trapveneer) for __fpl_cmpreturn
    rtexit.o(.ARM.Collect$$rtexit$$00000000) refers (Special) to rtexit2.o(.ARM.Collect$$rtexit$$00000004) for __rt_exit_exit
    rtexit.o(.ARM.Collect$$rtexit$$00000000) refers (Special) to rtexit2.o(.ARM.Collect$$rtexit$$00000003) for __rt_exit_ls
    rtexit.o(.ARM.Collect$$rtexit$$00000000) refers (Special) to rtexit2.o(.ARM.Collect$$rtexit$$00000002) for __rt_exit_prels_1
    rtexit.o(.ARM.exidx) refers (Special) to rtexit2.o(.ARM.Collect$$rtexit$$00000004) for __rt_exit_exit
    rtexit.o(.ARM.exidx) refers (Special) to rtexit2.o(.ARM.Collect$$rtexit$$00000003) for __rt_exit_ls
    rtexit.o(.ARM.exidx) refers (Special) to rtexit2.o(.ARM.Collect$$rtexit$$00000002) for __rt_exit_prels_1
    rtexit.o(.ARM.exidx) refers to rtexit.o(.ARM.Collect$$rtexit$$00000000) for .ARM.Collect$$rtexit$$00000000
    libinit2.o(.ARM.Collect$$libinit$$00000001) refers to fpinit.o(x$fpl$fpinit) for _fp_init
    libinit2.o(.ARM.Collect$$libinit$$00000010) refers to libinit2.o(.ARM.Collect$$libinit$$0000000F) for .ARM.Collect$$libinit$$0000000F
    libinit2.o(.ARM.Collect$$libinit$$00000012) refers to libinit2.o(.ARM.Collect$$libinit$$0000000F) for .ARM.Collect$$libinit$$0000000F
    libinit2.o(.ARM.Collect$$libinit$$00000014) refers to libinit2.o(.ARM.Collect$$libinit$$0000000F) for .ARM.Collect$$libinit$$0000000F
    libinit2.o(.ARM.Collect$$libinit$$00000016) refers to libinit2.o(.ARM.Collect$$libinit$$0000000F) for .ARM.Collect$$libinit$$0000000F
    libinit2.o(.ARM.Collect$$libinit$$00000018) refers to libinit2.o(.ARM.Collect$$libinit$$0000000F) for .ARM.Collect$$libinit$$0000000F
    libinit2.o(.ARM.Collect$$libinit$$00000026) refers to argv_veneer.o(.emb_text) for __ARM_argv_veneer
    libinit2.o(.ARM.Collect$$libinit$$00000027) refers to argv_veneer.o(.emb_text) for __ARM_argv_veneer
    trapv.o(x$fpl$trapveneer) refers (Special) to usenofp.o(x$fpl$usenofp) for __I$use$fp
    rtexit2.o(.ARM.Collect$$rtexit$$00000003) refers to libshutdown.o(.ARM.Collect$$libshutdown$$00000000) for __rt_lib_shutdown
    rtexit2.o(.ARM.Collect$$rtexit$$00000004) refers to usart.o(.text) for _sys_exit
    rtexit2.o(.ARM.exidx) refers to rtexit2.o(.ARM.Collect$$rtexit$$00000001) for .ARM.Collect$$rtexit$$00000001
    rtexit2.o(.ARM.exidx) refers to rtexit2.o(.ARM.Collect$$rtexit$$00000003) for .ARM.Collect$$rtexit$$00000003
    rtexit2.o(.ARM.exidx) refers to rtexit2.o(.ARM.Collect$$rtexit$$00000004) for .ARM.Collect$$rtexit$$00000004
    argv_veneer.o(.emb_text) refers to no_argv.o(.text) for __ARM_get_argv
    _get_argv_nomalloc.o(.text) refers (Special) to hrguard.o(.text) for __heap_region$guard
    _get_argv_nomalloc.o(.text) refers to defsig_rtmem_outer.o(.text) for __rt_SIGRTMEM
    _get_argv_nomalloc.o(.text) refers to sys_command.o(.text) for _sys_command_string
    libshutdown.o(.ARM.Collect$$libshutdown$$00000000) refers (Special) to libshutdown2.o(.ARM.Collect$$libshutdown$$00000004) for __rt_lib_shutdown_cpp_1
    libshutdown.o(.ARM.Collect$$libshutdown$$00000000) refers (Special) to libshutdown2.o(.ARM.Collect$$libshutdown$$00000002) for __rt_lib_shutdown_fini_1
    libshutdown.o(.ARM.Collect$$libshutdown$$00000000) refers (Special) to libshutdown2.o(.ARM.Collect$$libshutdown$$00000009) for __rt_lib_shutdown_fp_trap_1
    libshutdown.o(.ARM.Collect$$libshutdown$$00000000) refers (Special) to libshutdown2.o(.ARM.Collect$$libshutdown$$00000011) for __rt_lib_shutdown_heap_1
    libshutdown.o(.ARM.Collect$$libshutdown$$00000000) refers (Special) to libshutdown2.o(.ARM.Collect$$libshutdown$$00000012) for __rt_lib_shutdown_return
    libshutdown.o(.ARM.Collect$$libshutdown$$00000000) refers (Special) to libshutdown2.o(.ARM.Collect$$libshutdown$$0000000C) for __rt_lib_shutdown_signal_1
    libshutdown.o(.ARM.Collect$$libshutdown$$00000000) refers (Special) to libshutdown2.o(.ARM.Collect$$libshutdown$$00000006) for __rt_lib_shutdown_stdio_1
    libshutdown.o(.ARM.Collect$$libshutdown$$00000000) refers (Special) to libshutdown2.o(.ARM.Collect$$libshutdown$$0000000E) for __rt_lib_shutdown_user_alloc_1
    sys_command.o(.text) refers (Special) to use_no_semi.o(.text) for __I$use$semihosting
    sys_command.o(.text) refers (Special) to indicate_semi.o(.text) for __semihosting_library_function
    defsig_rtmem_outer.o(.text) refers to defsig_rtmem_inner.o(.text) for __rt_SIGRTMEM_inner
    defsig_rtmem_outer.o(.text) refers to defsig_exit.o(.text) for __sig_exit
    defsig_rtmem_formal.o(.text) refers to rt_raise.o(.text) for __rt_raise
    rt_raise.o(.text) refers to __raise.o(.text) for __raise
    rt_raise.o(.text) refers to usart.o(.text) for _sys_exit
    defsig_exit.o(.text) refers to usart.o(.text) for _sys_exit
    defsig_rtmem_inner.o(.text) refers to defsig_general.o(.text) for __default_signal_display
    __raise.o(.text) refers to defsig.o(CL$$defsig) for __default_signal_handler
    defsig_general.o(.text) refers to sys_wrch.o(.text) for _ttywrch
    sys_wrch.o(.text) refers (Special) to use_no_semi.o(.text) for __I$use$semihosting
    sys_wrch.o(.text) refers (Special) to indicate_semi.o(.text) for __semihosting_library_function
    defsig.o(CL$$defsig) refers to defsig_rtmem_inner.o(.text) for __rt_SIGRTMEM_inner
    defsig_abrt_inner.o(.text) refers to defsig_general.o(.text) for __default_signal_display
    defsig_fpe_inner.o(.text) refers to defsig_general.o(.text) for __default_signal_display
    defsig_rtred_inner.o(.text) refers to defsig_general.o(.text) for __default_signal_display
    defsig_stak_inner.o(.text) refers to defsig_general.o(.text) for __default_signal_display
    defsig_pvfn_inner.o(.text) refers to defsig_general.o(.text) for __default_signal_display
    defsig_cppl_inner.o(.text) refers to defsig_general.o(.text) for __default_signal_display
    defsig_segv_inner.o(.text) refers to defsig_general.o(.text) for __default_signal_display
    defsig_other.o(.text) refers to defsig_general.o(.text) for __default_signal_display


==============================================================================

Removing Unused input sections from the image.

    Removing aaa.o(.emb_text), (8 bytes).
    Removing main.o(.emb_text), (8 bytes).
    Removing angelcalculation.o(.emb_text), (8 bytes).
    Removing angelcalculation.o(.text), (1668 bytes).
    Removing angelcalculation.o(.data), (16 bytes).
    Removing angelcalculation1.o(.emb_text), (8 bytes).
    Removing angelcalculation1.o(.text), (1388 bytes).
    Removing angelcalculation1.o(.data), (20 bytes).
    Removing attitudealgorithm.o(.emb_text), (8 bytes).
    Removing attitudealgorithm.o(.text), (2344 bytes).
    Removing calculateslocation.o(.emb_text), (8 bytes).
    Removing calculateslocation.o(.text), (1408 bytes).
    Removing calculateslocation.o(.bss), (36 bytes).
    Removing calculateslocation.o(.constdata), (72 bytes).
    Removing can.o(.emb_text), (8 bytes).
    Removing dycnvertcoordinate1.o(.emb_text), (8 bytes).
    Removing dycnvertcoordinate1.o(.text), (3024 bytes).
    Removing dycnvertcoordinate1.o(.bss), (312 bytes).
    Removing dycnvertcoordinate1.o(.data), (188 bytes).
    Removing elmo.o(.emb_text), (8 bytes).
    Removing elmotest.o(.emb_text), (8 bytes).
    Removing elmotest.o(.text), (1348 bytes).
    Removing elmotest.o(.bss), (150 bytes).
    Removing elmotest.o(.data), (8 bytes).
    Removing encode.o(.emb_text), (8 bytes).
    Removing encode.o(.text), (224 bytes).
    Removing exit.o(.emb_text), (8 bytes).
    Removing exit.o(.text), (3136 bytes).
    Removing extiz.o(.emb_text), (8 bytes).
    Removing fsmc.o(.emb_text), (8 bytes).
    Removing guandaozhuanhuan.o(.emb_text), (8 bytes).
    Removing guandaozhuanhuan.o(.text), (1444 bytes).
    Removing guandaozhuanhuan.o(.constdata), (252 bytes).
    Removing guandaozhuanhuan.o(.data), (72 bytes).
    Removing ioinit.o(.emb_text), (8 bytes).
    Removing motoroutputposse.o(.emb_text), (8 bytes).
    Removing pointfunction.o(.emb_text), (8 bytes).
    Removing positionloop.o(.emb_text), (8 bytes).
    Removing servofunction.o(.emb_text), (8 bytes).
    Removing scanfunction.o(.emb_text), (8 bytes).
    Removing scanfunction.o(.text), (4020 bytes).
    Removing scanfunction.o(.bss), (4800 bytes).
    Removing stm32f4xx_it.o(.emb_text), (8 bytes).
    Removing stmflash.o(.emb_text), (8 bytes).
    Removing testfunction.o(.emb_text), (8 bytes).
    Removing testfunction.o(.text), (1376 bytes).
    Removing testfunction.o(.bss), (800 bytes).
    Removing testfunction.o(.data), (52 bytes).
    Removing testscan.o(.emb_text), (8 bytes).
    Removing testscan.o(.text), (428 bytes).
    Removing testscan.o(.bss), (150 bytes).
    Removing testscan.o(.data), (9 bytes).
    Removing timer.o(.emb_text), (8 bytes).
    Removing yunsufunction.o(.emb_text), (8 bytes).
    Removing yunsufunction.o(.text), (2972 bytes).
    Removing yunsufunction.o(.bss), (12000 bytes).
    Removing fy_485.o(.emb_text), (8 bytes).
    Removing fy_485.o(.text), (744 bytes).
    Removing fy_485.o(.bss), (27 bytes).
    Removing ahrs_100a.o(.emb_text), (8 bytes).
    Removing ahrs_100a.o(.text), (636 bytes).
    Removing ahrs_100a.o(.bss), (140 bytes).
    Removing ahrs_100a.o(.data), (128 bytes).
    Removing ascii.o(.emb_text), (8 bytes).
    Removing ascii.o(.text), (88 bytes).
    Removing camera_config.o(.emb_text), (8 bytes).
    Removing camera_config.o(.text), (208 bytes).
    Removing camera_config.o(.bss), (60 bytes).
    Removing camera_config.o(.data), (36 bytes).
    Removing rms.o(.emb_text), (8 bytes).
    Removing rms.o(.text), (512 bytes).
    Removing rms.o(.bss), (8000 bytes).
    Removing pc_communication.o(.emb_text), (8 bytes).
    Removing pc_communication.o(.text), (1216 bytes).
    Removing pc_communication.o(.bss), (76 bytes).
    Removing pc_communication.o(.data), (96 bytes).
    Removing rms2.o(.emb_text), (8 bytes).
    Removing comm1_communication.o(.emb_text), (8 bytes).
    Removing comm1_communication.o(.text), (25960 bytes).
    Removing comm1_communication.o(.bss), (316 bytes).
    Removing comm1_communication.o(.data), (38 bytes).
    Removing saomiao.o(.emb_text), (8 bytes).
    Removing temperature.o(.emb_text), (8 bytes).
    Removing temperature.o(.data), (12 bytes).
    Removing usart.o(.emb_text), (8 bytes).
    Removing receive_send_data.o(.emb_text), (8 bytes).
    Removing deg_inversesolution.o(.emb_text), (8 bytes).
    Removing deg_inversesolution.o(.bss), (120 bytes).
    Removing writeguandao.o(.emb_text), (8 bytes).
    Removing misc.o(.emb_text), (8 bytes).
    Removing stm32f4xx_adc.o(.emb_text), (8 bytes).
    Removing stm32f4xx_adc.o(.text), (1124 bytes).
    Removing stm32f4xx_can.o(.emb_text), (8 bytes).
    Removing stm32f4xx_crc.o(.emb_text), (8 bytes).
    Removing stm32f4xx_crc.o(.text), (72 bytes).
    Removing stm32f4xx_cryp.o(.emb_text), (8 bytes).
    Removing stm32f4xx_cryp.o(.text), (660 bytes).
    Removing stm32f4xx_cryp_aes.o(.emb_text), (8 bytes).
    Removing stm32f4xx_cryp_aes.o(.text), (1524 bytes).
    Removing stm32f4xx_cryp_des.o(.emb_text), (8 bytes).
    Removing stm32f4xx_cryp_des.o(.text), (468 bytes).
    Removing stm32f4xx_cryp_tdes.o(.emb_text), (8 bytes).
    Removing stm32f4xx_cryp_tdes.o(.text), (532 bytes).
    Removing stm32f4xx_dac.o(.emb_text), (8 bytes).
    Removing stm32f4xx_dac.o(.text), (528 bytes).
    Removing stm32f4xx_dbgmcu.o(.emb_text), (8 bytes).
    Removing stm32f4xx_dbgmcu.o(.text), (100 bytes).
    Removing stm32f4xx_dcmi.o(.emb_text), (8 bytes).
    Removing stm32f4xx_dcmi.o(.text), (400 bytes).
    Removing stm32f4xx_dma.o(.emb_text), (8 bytes).
    Removing stm32f4xx_dma.o(.text), (936 bytes).
    Removing stm32f4xx_exti.o(.emb_text), (8 bytes).
    Removing stm32f4xx_flash.o(.emb_text), (8 bytes).
    Removing stm32f4xx_fsmc.o(.emb_text), (8 bytes).
    Removing stm32f4xx_gpio.o(.emb_text), (8 bytes).
    Removing stm32f4xx_hash.o(.emb_text), (8 bytes).
    Removing stm32f4xx_hash.o(.text), (496 bytes).
    Removing stm32f4xx_hash_md5.o(.emb_text), (8 bytes).
    Removing stm32f4xx_hash_md5.o(.text), (534 bytes).
    Removing stm32f4xx_hash_sha1.o(.emb_text), (8 bytes).
    Removing stm32f4xx_hash_sha1.o(.text), (548 bytes).
    Removing stm32f4xx_i2c.o(.emb_text), (8 bytes).
    Removing stm32f4xx_i2c.o(.text), (1064 bytes).
    Removing stm32f4xx_iwdg.o(.emb_text), (8 bytes).
    Removing stm32f4xx_iwdg.o(.text), (64 bytes).
    Removing stm32f4xx_pwr.o(.emb_text), (8 bytes).
    Removing stm32f4xx_pwr.o(.text), (248 bytes).
    Removing stm32f4xx_rcc.o(.emb_text), (8 bytes).
    Removing stm32f4xx_rng.o(.emb_text), (8 bytes).
    Removing stm32f4xx_rng.o(.text), (160 bytes).
    Removing stm32f4xx_rtc.o(.emb_text), (8 bytes).
    Removing stm32f4xx_rtc.o(.text), (3376 bytes).
    Removing stm32f4xx_sdio.o(.emb_text), (8 bytes).
    Removing stm32f4xx_sdio.o(.text), (476 bytes).
    Removing stm32f4xx_spi.o(.emb_text), (8 bytes).
    Removing stm32f4xx_spi.o(.text), (1016 bytes).
    Removing stm32f4xx_syscfg.o(.emb_text), (8 bytes).
    Removing stm32f4xx_tim.o(.emb_text), (8 bytes).
    Removing stm32f4xx_usart.o(.emb_text), (8 bytes).
    Removing stm32f4xx_wwdg.o(.emb_text), (8 bytes).
    Removing stm32f4xx_wwdg.o(.text), (144 bytes).
    Removing system_stm32f4xx.o(.emb_text), (8 bytes).
    Removing stepsingle.o(.text), (538 bytes).

143 unused section(s) (total 97722 bytes) removed from the image.

==============================================================================

Image Symbol Table

    Local Symbols

    Symbol Name                              Value     Ov Type        Size  Object(Section)

    ../clib/angel/boardlib.s                 0x00000000   Number         0  boardinit2.o ABSOLUTE
    ../clib/angel/boardlib.s                 0x00000000   Number         0  boardinit3.o ABSOLUTE
    ../clib/angel/boardlib.s                 0x00000000   Number         0  boardinit1.o ABSOLUTE
    ../clib/angel/boardlib.s                 0x00000000   Number         0  boardshut.o ABSOLUTE
    ../clib/angel/dczerorl2.s                0x00000000   Number         0  __dczerorl2.o ABSOLUTE
    ../clib/angel/handlers.s                 0x00000000   Number         0  __scatter_zi.o ABSOLUTE
    ../clib/angel/kernel.s                   0x00000000   Number         0  rtexit2.o ABSOLUTE
    ../clib/angel/kernel.s                   0x00000000   Number         0  __rtentry.o ABSOLUTE
    ../clib/angel/kernel.s                   0x00000000   Number         0  rtexit.o ABSOLUTE
    ../clib/angel/kernel.s                   0x00000000   Number         0  __rtentry4.o ABSOLUTE
    ../clib/angel/kernel.s                   0x00000000   Number         0  __rtentry2.o ABSOLUTE
    ../clib/angel/rt.s                       0x00000000   Number         0  rt_raise.o ABSOLUTE
    ../clib/angel/rt.s                       0x00000000   Number         0  rt_errno_addr_intlibspace.o ABSOLUTE
    ../clib/angel/rt.s                       0x00000000   Number         0  rt_errno_addr.o ABSOLUTE
    ../clib/angel/scatter.s                  0x00000000   Number         0  __scatter.o ABSOLUTE
    ../clib/angel/startup.s                  0x00000000   Number         0  __main.o ABSOLUTE
    ../clib/angel/sys.s                      0x00000000   Number         0  use_no_semi_2.o ABSOLUTE
    ../clib/angel/sys.s                      0x00000000   Number         0  use_no_semi.o ABSOLUTE
    ../clib/angel/sys.s                      0x00000000   Number         0  indicate_semi.o ABSOLUTE
    ../clib/angel/sys.s                      0x00000000   Number         0  libspace.o ABSOLUTE
    ../clib/angel/sys.s                      0x00000000   Number         0  sys_stackheap_outer.o ABSOLUTE
    ../clib/angel/sysapp.c                   0x00000000   Number         0  sys_wrch.o ABSOLUTE
    ../clib/angel/sysapp.c                   0x00000000   Number         0  sys_command.o ABSOLUTE
    ../clib/armsys.c                         0x00000000   Number         0  no_argv.o ABSOLUTE
    ../clib/armsys.c                         0x00000000   Number         0  _get_argv_nomalloc.o ABSOLUTE
    ../clib/armsys.c                         0x00000000   Number         0  argv_veneer.o ABSOLUTE
    ../clib/armsys.c                         0x00000000   Number         0  argv_veneer.o ABSOLUTE
    ../clib/fenv.c                           0x00000000   Number         0  _rserrno.o ABSOLUTE
    ../clib/heapalloc.c                      0x00000000   Number         0  hrguard.o ABSOLUTE
    ../clib/heapaux.c                        0x00000000   Number         0  heapauxi.o ABSOLUTE
    ../clib/libinit.s                        0x00000000   Number         0  libinit2.o ABSOLUTE
    ../clib/libinit.s                        0x00000000   Number         0  libshutdown.o ABSOLUTE
    ../clib/libinit.s                        0x00000000   Number         0  libinit.o ABSOLUTE
    ../clib/libinit.s                        0x00000000   Number         0  libshutdown2.o ABSOLUTE
    ../clib/memcpset.s                       0x00000000   Number         0  rt_memclr_w.o ABSOLUTE
    ../clib/memcpset.s                       0x00000000   Number         0  rt_memcpy_w.o ABSOLUTE
    ../clib/signal.c                         0x00000000   Number         0  __raise.o ABSOLUTE
    ../clib/signal.c                         0x00000000   Number         0  defsig_rtmem_inner.o ABSOLUTE
    ../clib/signal.c                         0x00000000   Number         0  defsig_exit.o ABSOLUTE
    ../clib/signal.c                         0x00000000   Number         0  defsig_other.o ABSOLUTE
    ../clib/signal.c                         0x00000000   Number         0  defsig_segv_inner.o ABSOLUTE
    ../clib/signal.c                         0x00000000   Number         0  defsig_cppl_inner.o ABSOLUTE
    ../clib/signal.c                         0x00000000   Number         0  defsig_rtmem_outer.o ABSOLUTE
    ../clib/signal.c                         0x00000000   Number         0  defsig_pvfn_inner.o ABSOLUTE
    ../clib/signal.c                         0x00000000   Number         0  defsig_stak_inner.o ABSOLUTE
    ../clib/signal.c                         0x00000000   Number         0  defsig_rtmem_formal.o ABSOLUTE
    ../clib/signal.c                         0x00000000   Number         0  defsig_rtred_inner.o ABSOLUTE
    ../clib/signal.c                         0x00000000   Number         0  defsig_fpe_inner.o ABSOLUTE
    ../clib/signal.c                         0x00000000   Number         0  defsig_abrt_inner.o ABSOLUTE
    ../clib/signal.c                         0x00000000   Number         0  defsig_general.o ABSOLUTE
    ../clib/signal.s                         0x00000000   Number         0  defsig.o ABSOLUTE
    ../clib/stdlib.c                         0x00000000   Number         0  exit.o ABSOLUTE
    ../fplib/basic.s                         0x00000000   Number         0  basic.o ABSOLUTE
    ../fplib/d2f.s                           0x00000000   Number         0  d2f.o ABSOLUTE
    ../fplib/daddsub.s                       0x00000000   Number         0  daddsub_clz.o ABSOLUTE
    ../fplib/dcheck1.s                       0x00000000   Number         0  dcheck1.o ABSOLUTE
    ../fplib/dcmpi.s                         0x00000000   Number         0  dcmpi.o ABSOLUTE
    ../fplib/ddiv.s                          0x00000000   Number         0  ddiv.o ABSOLUTE
    ../fplib/deqf.s                          0x00000000   Number         0  deqf.o ABSOLUTE
    ../fplib/dfix.s                          0x00000000   Number         0  dfix.o ABSOLUTE
    ../fplib/dflt.s                          0x00000000   Number         0  dflt_clz.o ABSOLUTE
    ../fplib/dleqf.s                         0x00000000   Number         0  dleqf.o ABSOLUTE
    ../fplib/dmul.s                          0x00000000   Number         0  dmul.o ABSOLUTE
    ../fplib/dnaninf.s                       0x00000000   Number         0  dnaninf.o ABSOLUTE
    ../fplib/dretinf.s                       0x00000000   Number         0  dretinf.o ABSOLUTE
    ../fplib/drleqf.s                        0x00000000   Number         0  drleqf.o ABSOLUTE
    ../fplib/dsqrt.s                         0x00000000   Number         0  dsqrt_umaal.o ABSOLUTE
    ../fplib/f2d.s                           0x00000000   Number         0  f2d.o ABSOLUTE
    ../fplib/ffixll.s                        0x00000000   Number         0  ffixll.o ABSOLUTE
    ../fplib/fnaninf.s                       0x00000000   Number         0  fnaninf.o ABSOLUTE
    ../fplib/fpinit.s                        0x00000000   Number         0  fpinit.o ABSOLUTE
    ../fplib/fretinf.s                       0x00000000   Number         0  fretinf.o ABSOLUTE
    ../fplib/retnan.s                        0x00000000   Number         0  retnan.o ABSOLUTE
    ../fplib/scalbn.s                        0x00000000   Number         0  scalbn.o ABSOLUTE
    ../fplib/trapv.s                         0x00000000   Number         0  trapv.o ABSOLUTE
    ../fplib/usenofp.s                       0x00000000   Number         0  usenofp.o ABSOLUTE
    ../mathlib/acosf.c                       0x00000000   Number         0  acosf.o ABSOLUTE
    ../mathlib/acosf.c                       0x00000000   Number         0  acosf_x.o ABSOLUTE
    ../mathlib/asin.c                        0x00000000   Number         0  asin_x.o ABSOLUTE
    ../mathlib/asin.c                        0x00000000   Number         0  asin.o ABSOLUTE
    ../mathlib/asinf.c                       0x00000000   Number         0  asinf.o ABSOLUTE
    ../mathlib/asinf.c                       0x00000000   Number         0  asinf_x.o ABSOLUTE
    ../mathlib/atan.c                        0x00000000   Number         0  atan_x.o ABSOLUTE
    ../mathlib/atan.c                        0x00000000   Number         0  atan.o ABSOLUTE
    ../mathlib/atanf.c                       0x00000000   Number         0  atanf_x.o ABSOLUTE
    ../mathlib/atanf.c                       0x00000000   Number         0  atanf.o ABSOLUTE
    ../mathlib/cos.c                         0x00000000   Number         0  cos.o ABSOLUTE
    ../mathlib/cos.c                         0x00000000   Number         0  cos_x.o ABSOLUTE
    ../mathlib/cos_i.c                       0x00000000   Number         0  cos_i.o ABSOLUTE
    ../mathlib/cosf.c                        0x00000000   Number         0  cosf_x.o ABSOLUTE
    ../mathlib/cosf.c                        0x00000000   Number         0  cosf.o ABSOLUTE
    ../mathlib/dunder.c                      0x00000000   Number         0  dunder.o ABSOLUTE
    ../mathlib/fabs.c                        0x00000000   Number         0  fabs.o ABSOLUTE
    ../mathlib/fpclassify.c                  0x00000000   Number         0  fpclassify.o ABSOLUTE
    ../mathlib/fpclassifyf.c                 0x00000000   Number         0  fpclassifyf.o ABSOLUTE
    ../mathlib/funder.c                      0x00000000   Number         0  funder.o ABSOLUTE
    ../mathlib/poly.c                        0x00000000   Number         0  poly.o ABSOLUTE
    ../mathlib/pow.c                         0x00000000   Number         0  pow_x.o ABSOLUTE
    ../mathlib/pow.c                         0x00000000   Number         0  pow.o ABSOLUTE
    ../mathlib/qnan.c                        0x00000000   Number         0  qnan.o ABSOLUTE
    ../mathlib/rred.c                        0x00000000   Number         0  rred.o ABSOLUTE
    ../mathlib/rredf.c                       0x00000000   Number         0  rredf.o ABSOLUTE
    ../mathlib/sin.c                         0x00000000   Number         0  sin_x.o ABSOLUTE
    ../mathlib/sin.c                         0x00000000   Number         0  sin.o ABSOLUTE
    ../mathlib/sin_i.c                       0x00000000   Number         0  sin_i_x.o ABSOLUTE
    ../mathlib/sin_i.c                       0x00000000   Number         0  sin_i.o ABSOLUTE
    ../mathlib/sinf.c                        0x00000000   Number         0  sinf_x.o ABSOLUTE
    ../mathlib/sinf.c                        0x00000000   Number         0  sinf.o ABSOLUTE
    ../mathlib/sqrt.c                        0x00000000   Number         0  sqrt_x.o ABSOLUTE
    ../mathlib/sqrt.c                        0x00000000   Number         0  sqrt.o ABSOLUTE
    ../mathlib/sqrtf.c                       0x00000000   Number         0  sqrtf.o ABSOLUTE
    ../mathlib/sqrtf.c                       0x00000000   Number         0  sqrtf_x.o ABSOLUTE
    ..\Libraries\CMSIS\Device\ST\STM32F4xx\Source\Templates\arm\startup_stm32f4xx.s 0x00000000   Number         0  startup_stm32f4xx.o ABSOLUTE
    ..\Libraries\CMSIS\Device\ST\STM32F4xx\Source\Templates\system_stm32f4xx.c 0x00000000   Number         0  system_stm32f4xx.o ABSOLUTE
    ..\Libraries\STM32F4xx_StdPeriph_Driver\src\misc.c 0x00000000   Number         0  misc.o ABSOLUTE
    ..\Libraries\STM32F4xx_StdPeriph_Driver\src\stm32f4xx_adc.c 0x00000000   Number         0  stm32f4xx_adc.o ABSOLUTE
    ..\Libraries\STM32F4xx_StdPeriph_Driver\src\stm32f4xx_can.c 0x00000000   Number         0  stm32f4xx_can.o ABSOLUTE
    ..\Libraries\STM32F4xx_StdPeriph_Driver\src\stm32f4xx_crc.c 0x00000000   Number         0  stm32f4xx_crc.o ABSOLUTE
    ..\Libraries\STM32F4xx_StdPeriph_Driver\src\stm32f4xx_cryp.c 0x00000000   Number         0  stm32f4xx_cryp.o ABSOLUTE
    ..\Libraries\STM32F4xx_StdPeriph_Driver\src\stm32f4xx_cryp_aes.c 0x00000000   Number         0  stm32f4xx_cryp_aes.o ABSOLUTE
    ..\Libraries\STM32F4xx_StdPeriph_Driver\src\stm32f4xx_cryp_des.c 0x00000000   Number         0  stm32f4xx_cryp_des.o ABSOLUTE
    ..\Libraries\STM32F4xx_StdPeriph_Driver\src\stm32f4xx_cryp_tdes.c 0x00000000   Number         0  stm32f4xx_cryp_tdes.o ABSOLUTE
    ..\Libraries\STM32F4xx_StdPeriph_Driver\src\stm32f4xx_dac.c 0x00000000   Number         0  stm32f4xx_dac.o ABSOLUTE
    ..\Libraries\STM32F4xx_StdPeriph_Driver\src\stm32f4xx_dbgmcu.c 0x00000000   Number         0  stm32f4xx_dbgmcu.o ABSOLUTE
    ..\Libraries\STM32F4xx_StdPeriph_Driver\src\stm32f4xx_dcmi.c 0x00000000   Number         0  stm32f4xx_dcmi.o ABSOLUTE
    ..\Libraries\STM32F4xx_StdPeriph_Driver\src\stm32f4xx_dma.c 0x00000000   Number         0  stm32f4xx_dma.o ABSOLUTE
    ..\Libraries\STM32F4xx_StdPeriph_Driver\src\stm32f4xx_exti.c 0x00000000   Number         0  stm32f4xx_exti.o ABSOLUTE
    ..\Libraries\STM32F4xx_StdPeriph_Driver\src\stm32f4xx_flash.c 0x00000000   Number         0  stm32f4xx_flash.o ABSOLUTE
    ..\Libraries\STM32F4xx_StdPeriph_Driver\src\stm32f4xx_fsmc.c 0x00000000   Number         0  stm32f4xx_fsmc.o ABSOLUTE
    ..\Libraries\STM32F4xx_StdPeriph_Driver\src\stm32f4xx_gpio.c 0x00000000   Number         0  stm32f4xx_gpio.o ABSOLUTE
    ..\Libraries\STM32F4xx_StdPeriph_Driver\src\stm32f4xx_hash.c 0x00000000   Number         0  stm32f4xx_hash.o ABSOLUTE
    ..\Libraries\STM32F4xx_StdPeriph_Driver\src\stm32f4xx_hash_md5.c 0x00000000   Number         0  stm32f4xx_hash_md5.o ABSOLUTE
    ..\Libraries\STM32F4xx_StdPeriph_Driver\src\stm32f4xx_hash_sha1.c 0x00000000   Number         0  stm32f4xx_hash_sha1.o ABSOLUTE
    ..\Libraries\STM32F4xx_StdPeriph_Driver\src\stm32f4xx_i2c.c 0x00000000   Number         0  stm32f4xx_i2c.o ABSOLUTE
    ..\Libraries\STM32F4xx_StdPeriph_Driver\src\stm32f4xx_iwdg.c 0x00000000   Number         0  stm32f4xx_iwdg.o ABSOLUTE
    ..\Libraries\STM32F4xx_StdPeriph_Driver\src\stm32f4xx_pwr.c 0x00000000   Number         0  stm32f4xx_pwr.o ABSOLUTE
    ..\Libraries\STM32F4xx_StdPeriph_Driver\src\stm32f4xx_rcc.c 0x00000000   Number         0  stm32f4xx_rcc.o ABSOLUTE
    ..\Libraries\STM32F4xx_StdPeriph_Driver\src\stm32f4xx_rng.c 0x00000000   Number         0  stm32f4xx_rng.o ABSOLUTE
    ..\Libraries\STM32F4xx_StdPeriph_Driver\src\stm32f4xx_rtc.c 0x00000000   Number         0  stm32f4xx_rtc.o ABSOLUTE
    ..\Libraries\STM32F4xx_StdPeriph_Driver\src\stm32f4xx_sdio.c 0x00000000   Number         0  stm32f4xx_sdio.o ABSOLUTE
    ..\Libraries\STM32F4xx_StdPeriph_Driver\src\stm32f4xx_spi.c 0x00000000   Number         0  stm32f4xx_spi.o ABSOLUTE
    ..\Libraries\STM32F4xx_StdPeriph_Driver\src\stm32f4xx_syscfg.c 0x00000000   Number         0  stm32f4xx_syscfg.o ABSOLUTE
    ..\Libraries\STM32F4xx_StdPeriph_Driver\src\stm32f4xx_tim.c 0x00000000   Number         0  stm32f4xx_tim.o ABSOLUTE
    ..\Libraries\STM32F4xx_StdPeriph_Driver\src\stm32f4xx_usart.c 0x00000000   Number         0  stm32f4xx_usart.o ABSOLUTE
    ..\Libraries\STM32F4xx_StdPeriph_Driver\src\stm32f4xx_wwdg.c 0x00000000   Number         0  stm32f4xx_wwdg.o ABSOLUTE
    ..\StepSingle\StepSingle.c               0x00000000   Number         0  stepsingle.o ABSOLUTE
    ..\User\AHRS_100A.c                      0x00000000   Number         0  ahrs_100a.o ABSOLUTE
    ..\User\ASCII.c                          0x00000000   Number         0  ascii.o ABSOLUTE
    ..\User\AngelCalculation.c               0x00000000   Number         0  angelcalculation.o ABSOLUTE
    ..\User\AngelCalculation1.c              0x00000000   Number         0  angelcalculation1.o ABSOLUTE
    ..\User\AttitudeAlgorithm.c              0x00000000   Number         0  attitudealgorithm.o ABSOLUTE
    ..\User\CalculatesLocation.c             0x00000000   Number         0  calculateslocation.o ABSOLUTE
    ..\User\Camera_Config.c                  0x00000000   Number         0  camera_config.o ABSOLUTE
    ..\User\Comm1_Communication.c            0x00000000   Number         0  comm1_communication.o ABSOLUTE
    ..\User\Deg_InverseSolution.c            0x00000000   Number         0  deg_inversesolution.o ABSOLUTE
    ..\User\DyCnvertCoordinate1.c            0x00000000   Number         0  dycnvertcoordinate1.o ABSOLUTE
    ..\User\ELMOTEST.c                       0x00000000   Number         0  elmotest.o ABSOLUTE
    ..\User\EXIT.c                           0x00000000   Number         0  exit.o ABSOLUTE
    ..\User\FSMC.c                           0x00000000   Number         0  fsmc.o ABSOLUTE
    ..\User\FY_485.c                         0x00000000   Number         0  fy_485.o ABSOLUTE
    ..\User\FsmCompensator.c                 0x00000000   Number         0  fsmcompensator.o ABSOLUTE
    ..\User\FsmCompensator_servo.c           0x00000000   Number         0  fsmcompensator_servo.o ABSOLUTE
    ..\User\GuanDaoZhuanHuan.c               0x00000000   Number         0  guandaozhuanhuan.o ABSOLUTE
    ..\User\MotorOutputPosse.c               0x00000000   Number         0  motoroutputposse.o ABSOLUTE
    ..\User\PC_Communication.c               0x00000000   Number         0  pc_communication.o ABSOLUTE
    ..\User\PointFunction.c                  0x00000000   Number         0  pointfunction.o ABSOLUTE
    ..\User\PositionLoop.c                   0x00000000   Number         0  positionloop.o ABSOLUTE
    ..\User\RMS.c                            0x00000000   Number         0  rms.o ABSOLUTE
    ..\User\RMS2.c                           0x00000000   Number         0  rms2.o ABSOLUTE
    ..\User\Receive_Send_Data.c              0x00000000   Number         0  receive_send_data.o ABSOLUTE
    ..\User\SaoMiao.c                        0x00000000   Number         0  saomiao.o ABSOLUTE
    ..\User\ScanFunction.c                   0x00000000   Number         0  scanfunction.o ABSOLUTE
    ..\User\ServoFunction.c                  0x00000000   Number         0  servofunction.o ABSOLUTE
    ..\User\TestFunction.c                   0x00000000   Number         0  testfunction.o ABSOLUTE
    ..\User\TestScan.c                       0x00000000   Number         0  testscan.o ABSOLUTE
    ..\User\WriteGuanDao.c                   0x00000000   Number         0  writeguandao.o ABSOLUTE
    ..\User\YunSuFunction.c                  0x00000000   Number         0  yunsufunction.o ABSOLUTE
    ..\User\aaa.c                            0x00000000   Number         0  aaa.o ABSOLUTE
    ..\User\can.c                            0x00000000   Number         0  can.o ABSOLUTE
    ..\User\elmo.c                           0x00000000   Number         0  elmo.o ABSOLUTE
    ..\User\encode.c                         0x00000000   Number         0  encode.o ABSOLUTE
    ..\User\extiz.c                          0x00000000   Number         0  extiz.o ABSOLUTE
    ..\User\ioinit.c                         0x00000000   Number         0  ioinit.o ABSOLUTE
    ..\User\main.c                           0x00000000   Number         0  main.o ABSOLUTE
    ..\User\stm32f4xx_it.c                   0x00000000   Number         0  stm32f4xx_it.o ABSOLUTE
    ..\User\stmflash.c                       0x00000000   Number         0  stmflash.o ABSOLUTE
    ..\User\temperature.c                    0x00000000   Number         0  temperature.o ABSOLUTE
    ..\User\timer.c                          0x00000000   Number         0  timer.o ABSOLUTE
    ..\User\usart.c                          0x00000000   Number         0  usart.o ABSOLUTE
    ..\\Libraries\\CMSIS\\Device\\ST\\STM32F4xx\\Source\\Templates\\system_stm32f4xx.c 0x00000000   Number         0  system_stm32f4xx.o ABSOLUTE
    ..\\Libraries\\STM32F4xx_StdPeriph_Driver\\src\\misc.c 0x00000000   Number         0  misc.o ABSOLUTE
    ..\\Libraries\\STM32F4xx_StdPeriph_Driver\\src\\stm32f4xx_adc.c 0x00000000   Number         0  stm32f4xx_adc.o ABSOLUTE
    ..\\Libraries\\STM32F4xx_StdPeriph_Driver\\src\\stm32f4xx_can.c 0x00000000   Number         0  stm32f4xx_can.o ABSOLUTE
    ..\\Libraries\\STM32F4xx_StdPeriph_Driver\\src\\stm32f4xx_crc.c 0x00000000   Number         0  stm32f4xx_crc.o ABSOLUTE
    ..\\Libraries\\STM32F4xx_StdPeriph_Driver\\src\\stm32f4xx_cryp.c 0x00000000   Number         0  stm32f4xx_cryp.o ABSOLUTE
    ..\\Libraries\\STM32F4xx_StdPeriph_Driver\\src\\stm32f4xx_cryp_aes.c 0x00000000   Number         0  stm32f4xx_cryp_aes.o ABSOLUTE
    ..\\Libraries\\STM32F4xx_StdPeriph_Driver\\src\\stm32f4xx_cryp_des.c 0x00000000   Number         0  stm32f4xx_cryp_des.o ABSOLUTE
    ..\\Libraries\\STM32F4xx_StdPeriph_Driver\\src\\stm32f4xx_cryp_tdes.c 0x00000000   Number         0  stm32f4xx_cryp_tdes.o ABSOLUTE
    ..\\Libraries\\STM32F4xx_StdPeriph_Driver\\src\\stm32f4xx_dac.c 0x00000000   Number         0  stm32f4xx_dac.o ABSOLUTE
    ..\\Libraries\\STM32F4xx_StdPeriph_Driver\\src\\stm32f4xx_dbgmcu.c 0x00000000   Number         0  stm32f4xx_dbgmcu.o ABSOLUTE
    ..\\Libraries\\STM32F4xx_StdPeriph_Driver\\src\\stm32f4xx_dcmi.c 0x00000000   Number         0  stm32f4xx_dcmi.o ABSOLUTE
    ..\\Libraries\\STM32F4xx_StdPeriph_Driver\\src\\stm32f4xx_dma.c 0x00000000   Number         0  stm32f4xx_dma.o ABSOLUTE
    ..\\Libraries\\STM32F4xx_StdPeriph_Driver\\src\\stm32f4xx_exti.c 0x00000000   Number         0  stm32f4xx_exti.o ABSOLUTE
    ..\\Libraries\\STM32F4xx_StdPeriph_Driver\\src\\stm32f4xx_flash.c 0x00000000   Number         0  stm32f4xx_flash.o ABSOLUTE
    ..\\Libraries\\STM32F4xx_StdPeriph_Driver\\src\\stm32f4xx_fsmc.c 0x00000000   Number         0  stm32f4xx_fsmc.o ABSOLUTE
    ..\\Libraries\\STM32F4xx_StdPeriph_Driver\\src\\stm32f4xx_gpio.c 0x00000000   Number         0  stm32f4xx_gpio.o ABSOLUTE
    ..\\Libraries\\STM32F4xx_StdPeriph_Driver\\src\\stm32f4xx_hash.c 0x00000000   Number         0  stm32f4xx_hash.o ABSOLUTE
    ..\\Libraries\\STM32F4xx_StdPeriph_Driver\\src\\stm32f4xx_hash_md5.c 0x00000000   Number         0  stm32f4xx_hash_md5.o ABSOLUTE
    ..\\Libraries\\STM32F4xx_StdPeriph_Driver\\src\\stm32f4xx_hash_sha1.c 0x00000000   Number         0  stm32f4xx_hash_sha1.o ABSOLUTE
    ..\\Libraries\\STM32F4xx_StdPeriph_Driver\\src\\stm32f4xx_i2c.c 0x00000000   Number         0  stm32f4xx_i2c.o ABSOLUTE
    ..\\Libraries\\STM32F4xx_StdPeriph_Driver\\src\\stm32f4xx_iwdg.c 0x00000000   Number         0  stm32f4xx_iwdg.o ABSOLUTE
    ..\\Libraries\\STM32F4xx_StdPeriph_Driver\\src\\stm32f4xx_pwr.c 0x00000000   Number         0  stm32f4xx_pwr.o ABSOLUTE
    ..\\Libraries\\STM32F4xx_StdPeriph_Driver\\src\\stm32f4xx_rcc.c 0x00000000   Number         0  stm32f4xx_rcc.o ABSOLUTE
    ..\\Libraries\\STM32F4xx_StdPeriph_Driver\\src\\stm32f4xx_rng.c 0x00000000   Number         0  stm32f4xx_rng.o ABSOLUTE
    ..\\Libraries\\STM32F4xx_StdPeriph_Driver\\src\\stm32f4xx_rtc.c 0x00000000   Number         0  stm32f4xx_rtc.o ABSOLUTE
    ..\\Libraries\\STM32F4xx_StdPeriph_Driver\\src\\stm32f4xx_sdio.c 0x00000000   Number         0  stm32f4xx_sdio.o ABSOLUTE
    ..\\Libraries\\STM32F4xx_StdPeriph_Driver\\src\\stm32f4xx_spi.c 0x00000000   Number         0  stm32f4xx_spi.o ABSOLUTE
    ..\\Libraries\\STM32F4xx_StdPeriph_Driver\\src\\stm32f4xx_syscfg.c 0x00000000   Number         0  stm32f4xx_syscfg.o ABSOLUTE
    ..\\Libraries\\STM32F4xx_StdPeriph_Driver\\src\\stm32f4xx_tim.c 0x00000000   Number         0  stm32f4xx_tim.o ABSOLUTE
    ..\\Libraries\\STM32F4xx_StdPeriph_Driver\\src\\stm32f4xx_usart.c 0x00000000   Number         0  stm32f4xx_usart.o ABSOLUTE
    ..\\Libraries\\STM32F4xx_StdPeriph_Driver\\src\\stm32f4xx_wwdg.c 0x00000000   Number         0  stm32f4xx_wwdg.o ABSOLUTE
    ..\\User\\AHRS_100A.c                    0x00000000   Number         0  ahrs_100a.o ABSOLUTE
    ..\\User\\ASCII.c                        0x00000000   Number         0  ascii.o ABSOLUTE
    ..\\User\\AngelCalculation.c             0x00000000   Number         0  angelcalculation.o ABSOLUTE
    ..\\User\\AngelCalculation1.c            0x00000000   Number         0  angelcalculation1.o ABSOLUTE
    ..\\User\\AttitudeAlgorithm.c            0x00000000   Number         0  attitudealgorithm.o ABSOLUTE
    ..\\User\\CalculatesLocation.c           0x00000000   Number         0  calculateslocation.o ABSOLUTE
    ..\\User\\Camera_Config.c                0x00000000   Number         0  camera_config.o ABSOLUTE
    ..\\User\\Comm1_Communication.c          0x00000000   Number         0  comm1_communication.o ABSOLUTE
    ..\\User\\Deg_InverseSolution.c          0x00000000   Number         0  deg_inversesolution.o ABSOLUTE
    ..\\User\\DyCnvertCoordinate1.c          0x00000000   Number         0  dycnvertcoordinate1.o ABSOLUTE
    ..\\User\\ELMOTEST.c                     0x00000000   Number         0  elmotest.o ABSOLUTE
    ..\\User\\EXIT.c                         0x00000000   Number         0  exit.o ABSOLUTE
    ..\\User\\FSMC.c                         0x00000000   Number         0  fsmc.o ABSOLUTE
    ..\\User\\FY_485.c                       0x00000000   Number         0  fy_485.o ABSOLUTE
    ..\\User\\GuanDaoZhuanHuan.c             0x00000000   Number         0  guandaozhuanhuan.o ABSOLUTE
    ..\\User\\MotorOutputPosse.c             0x00000000   Number         0  motoroutputposse.o ABSOLUTE
    ..\\User\\PC_Communication.c             0x00000000   Number         0  pc_communication.o ABSOLUTE
    ..\\User\\PointFunction.c                0x00000000   Number         0  pointfunction.o ABSOLUTE
    ..\\User\\PositionLoop.c                 0x00000000   Number         0  positionloop.o ABSOLUTE
    ..\\User\\RMS.c                          0x00000000   Number         0  rms.o ABSOLUTE
    ..\\User\\RMS2.c                         0x00000000   Number         0  rms2.o ABSOLUTE
    ..\\User\\Receive_Send_Data.c            0x00000000   Number         0  receive_send_data.o ABSOLUTE
    ..\\User\\SaoMiao.c                      0x00000000   Number         0  saomiao.o ABSOLUTE
    ..\\User\\ScanFunction.c                 0x00000000   Number         0  scanfunction.o ABSOLUTE
    ..\\User\\ServoFunction.c                0x00000000   Number         0  servofunction.o ABSOLUTE
    ..\\User\\TestFunction.c                 0x00000000   Number         0  testfunction.o ABSOLUTE
    ..\\User\\TestScan.c                     0x00000000   Number         0  testscan.o ABSOLUTE
    ..\\User\\WriteGuanDao.c                 0x00000000   Number         0  writeguandao.o ABSOLUTE
    ..\\User\\YunSuFunction.c                0x00000000   Number         0  yunsufunction.o ABSOLUTE
    ..\\User\\aaa.c                          0x00000000   Number         0  aaa.o ABSOLUTE
    ..\\User\\can.c                          0x00000000   Number         0  can.o ABSOLUTE
    ..\\User\\elmo.c                         0x00000000   Number         0  elmo.o ABSOLUTE
    ..\\User\\encode.c                       0x00000000   Number         0  encode.o ABSOLUTE
    ..\\User\\extiz.c                        0x00000000   Number         0  extiz.o ABSOLUTE
    ..\\User\\ioinit.c                       0x00000000   Number         0  ioinit.o ABSOLUTE
    ..\\User\\main.c                         0x00000000   Number         0  main.o ABSOLUTE
    ..\\User\\stm32f4xx_it.c                 0x00000000   Number         0  stm32f4xx_it.o ABSOLUTE
    ..\\User\\stmflash.c                     0x00000000   Number         0  stmflash.o ABSOLUTE
    ..\\User\\temperature.c                  0x00000000   Number         0  temperature.o ABSOLUTE
    ..\\User\\timer.c                        0x00000000   Number         0  timer.o ABSOLUTE
    ..\\User\\usart.c                        0x00000000   Number         0  usart.o ABSOLUTE
    dc.s                                     0x00000000   Number         0  dc.o ABSOLUTE
    RESET                                    0x08000000   Section      392  startup_stm32f4xx.o(RESET)
    !!!main                                  0x08000188   Section        8  __main.o(!!!main)
    !!!scatter                               0x08000190   Section       52  __scatter.o(!!!scatter)
    !!dczerorl2                              0x080001c4   Section       90  __dczerorl2.o(!!dczerorl2)
    !!handler_zi                             0x08000220   Section       28  __scatter_zi.o(!!handler_zi)
    .ARM.Collect$$libinit$$00000000          0x0800023c   Section        2  libinit.o(.ARM.Collect$$libinit$$00000000)
    .ARM.Collect$$libinit$$00000001          0x0800023e   Section        4  libinit2.o(.ARM.Collect$$libinit$$00000001)
    .ARM.Collect$$libinit$$00000004          0x08000242   Section        0  libinit2.o(.ARM.Collect$$libinit$$00000004)
    .ARM.Collect$$libinit$$0000000A          0x08000242   Section        0  libinit2.o(.ARM.Collect$$libinit$$0000000A)
    .ARM.Collect$$libinit$$0000000C          0x08000242   Section        0  libinit2.o(.ARM.Collect$$libinit$$0000000C)
    .ARM.Collect$$libinit$$0000000E          0x08000242   Section        0  libinit2.o(.ARM.Collect$$libinit$$0000000E)
    .ARM.Collect$$libinit$$00000011          0x08000242   Section        0  libinit2.o(.ARM.Collect$$libinit$$00000011)
    .ARM.Collect$$libinit$$00000013          0x08000242   Section        0  libinit2.o(.ARM.Collect$$libinit$$00000013)
    .ARM.Collect$$libinit$$00000015          0x08000242   Section        0  libinit2.o(.ARM.Collect$$libinit$$00000015)
    .ARM.Collect$$libinit$$00000017          0x08000242   Section        0  libinit2.o(.ARM.Collect$$libinit$$00000017)
    .ARM.Collect$$libinit$$00000019          0x08000242   Section        0  libinit2.o(.ARM.Collect$$libinit$$00000019)
    .ARM.Collect$$libinit$$0000001B          0x08000242   Section        0  libinit2.o(.ARM.Collect$$libinit$$0000001B)
    .ARM.Collect$$libinit$$0000001D          0x08000242   Section        0  libinit2.o(.ARM.Collect$$libinit$$0000001D)
    .ARM.Collect$$libinit$$0000001F          0x08000242   Section        0  libinit2.o(.ARM.Collect$$libinit$$0000001F)
    .ARM.Collect$$libinit$$00000021          0x08000242   Section        0  libinit2.o(.ARM.Collect$$libinit$$00000021)
    .ARM.Collect$$libinit$$00000023          0x08000242   Section        0  libinit2.o(.ARM.Collect$$libinit$$00000023)
    .ARM.Collect$$libinit$$00000025          0x08000242   Section        0  libinit2.o(.ARM.Collect$$libinit$$00000025)
    .ARM.Collect$$libinit$$0000002C          0x08000242   Section        0  libinit2.o(.ARM.Collect$$libinit$$0000002C)
    .ARM.Collect$$libinit$$0000002E          0x08000242   Section        0  libinit2.o(.ARM.Collect$$libinit$$0000002E)
    .ARM.Collect$$libinit$$00000030          0x08000242   Section        0  libinit2.o(.ARM.Collect$$libinit$$00000030)
    .ARM.Collect$$libinit$$00000032          0x08000242   Section        0  libinit2.o(.ARM.Collect$$libinit$$00000032)
    .ARM.Collect$$libinit$$00000033          0x08000242   Section        2  libinit2.o(.ARM.Collect$$libinit$$00000033)
    .ARM.Collect$$libshutdown$$00000000      0x08000244   Section        2  libshutdown.o(.ARM.Collect$$libshutdown$$00000000)
    .ARM.Collect$$libshutdown$$00000002      0x08000246   Section        0  libshutdown2.o(.ARM.Collect$$libshutdown$$00000002)
    .ARM.Collect$$libshutdown$$00000004      0x08000246   Section        0  libshutdown2.o(.ARM.Collect$$libshutdown$$00000004)
    .ARM.Collect$$libshutdown$$00000006      0x08000246   Section        0  libshutdown2.o(.ARM.Collect$$libshutdown$$00000006)
    .ARM.Collect$$libshutdown$$00000009      0x08000246   Section        0  libshutdown2.o(.ARM.Collect$$libshutdown$$00000009)
    .ARM.Collect$$libshutdown$$0000000C      0x08000246   Section        0  libshutdown2.o(.ARM.Collect$$libshutdown$$0000000C)
    .ARM.Collect$$libshutdown$$0000000E      0x08000246   Section        0  libshutdown2.o(.ARM.Collect$$libshutdown$$0000000E)
    .ARM.Collect$$libshutdown$$00000011      0x08000246   Section        0  libshutdown2.o(.ARM.Collect$$libshutdown$$00000011)
    .ARM.Collect$$libshutdown$$00000012      0x08000246   Section        2  libshutdown2.o(.ARM.Collect$$libshutdown$$00000012)
    .ARM.Collect$$rtentry$$00000000          0x08000248   Section        0  __rtentry.o(.ARM.Collect$$rtentry$$00000000)
    .ARM.Collect$$rtentry$$00000002          0x08000248   Section        0  __rtentry2.o(.ARM.Collect$$rtentry$$00000002)
    .ARM.Collect$$rtentry$$00000004          0x08000248   Section        6  __rtentry4.o(.ARM.Collect$$rtentry$$00000004)
    .ARM.Collect$$rtentry$$00000009          0x0800024e   Section        0  __rtentry2.o(.ARM.Collect$$rtentry$$00000009)
    .ARM.Collect$$rtentry$$0000000A          0x0800024e   Section        4  __rtentry2.o(.ARM.Collect$$rtentry$$0000000A)
    .ARM.Collect$$rtentry$$0000000C          0x08000252   Section        0  __rtentry2.o(.ARM.Collect$$rtentry$$0000000C)
    .ARM.Collect$$rtentry$$0000000D          0x08000252   Section        8  __rtentry2.o(.ARM.Collect$$rtentry$$0000000D)
    .ARM.Collect$$rtexit$$00000000           0x0800025a   Section        2  rtexit.o(.ARM.Collect$$rtexit$$00000000)
    .ARM.Collect$$rtexit$$00000002           0x0800025c   Section        0  rtexit2.o(.ARM.Collect$$rtexit$$00000002)
    .ARM.Collect$$rtexit$$00000003           0x0800025c   Section        4  rtexit2.o(.ARM.Collect$$rtexit$$00000003)
    .ARM.Collect$$rtexit$$00000004           0x08000260   Section        6  rtexit2.o(.ARM.Collect$$rtexit$$00000004)
    .text                                    0x08000268   Section        0  aaa.o(.text)
    .text                                    0x0800376c   Section        0  main.o(.text)
    .text                                    0x08003970   Section        0  can.o(.text)
    .text                                    0x08003d4c   Section        0  elmo.o(.text)
    .text                                    0x08005928   Section        0  extiz.o(.text)
    .text                                    0x080059a4   Section        0  fsmc.o(.text)
    .text                                    0x08005c48   Section        0  fsmcompensator.o(.text)
    .text                                    0x080098b8   Section        0  fsmcompensator_servo.o(.text)
    .text                                    0x0800afdc   Section        0  ioinit.o(.text)
    .text                                    0x0800b310   Section        0  motoroutputposse.o(.text)
    .text                                    0x0800b59c   Section        0  pointfunction.o(.text)
    .text                                    0x0800b718   Section        0  positionloop.o(.text)
    .text                                    0x0800c71c   Section        0  servofunction.o(.text)
    .text                                    0x0800d224   Section        0  stm32f4xx_it.o(.text)
    .text                                    0x0800e41c   Section        0  stmflash.o(.text)
    .text                                    0x0800e578   Section        0  timer.o(.text)
    .text                                    0x080129fc   Section        0  rms2.o(.text)
    .text                                    0x08012bfc   Section        0  saomiao.o(.text)
    .text                                    0x08012dc8   Section        0  usart.o(.text)
    .text                                    0x0801338c   Section        0  receive_send_data.o(.text)
    .text                                    0x0801438c   Section        0  deg_inversesolution.o(.text)
    .text                                    0x08014edc   Section        0  writeguandao.o(.text)
    .text                                    0x08015068   Section       64  startup_stm32f4xx.o(.text)
    $v0                                      0x08015068   Number         0  startup_stm32f4xx.o(.text)
    .text                                    0x080150a8   Section        0  misc.o(.text)
    .text                                    0x08015188   Section        0  stm32f4xx_can.o(.text)
    CheckITStatus                            0x0801598b   Thumb Code    18  stm32f4xx_can.o(.text)
    .text                                    0x08015b78   Section        0  stm32f4xx_exti.o(.text)
    .text                                    0x08015c94   Section        0  stm32f4xx_flash.o(.text)
    .text                                    0x08016150   Section        0  stm32f4xx_fsmc.o(.text)
    .text                                    0x08016758   Section        0  stm32f4xx_gpio.o(.text)
    .text                                    0x080169b4   Section        0  stm32f4xx_rcc.o(.text)
    .text                                    0x08016f3c   Section        0  stm32f4xx_syscfg.o(.text)
    .text                                    0x08016fc8   Section        0  stm32f4xx_tim.o(.text)
    TI4_Config                               0x08017767   Thumb Code    80  stm32f4xx_tim.o(.text)
    TI3_Config                               0x080177c9   Thumb Code    72  stm32f4xx_tim.o(.text)
    TI2_Config                               0x0801782b   Thumb Code    90  stm32f4xx_tim.o(.text)
    TI1_Config                               0x08017897   Thumb Code    58  stm32f4xx_tim.o(.text)
    .text                                    0x08017c6c   Section        0  stm32f4xx_usart.o(.text)
    .text                                    0x0801809c   Section        0  system_stm32f4xx.o(.text)
    SetSysClock                              0x0801809d   Thumb Code   220  system_stm32f4xx.o(.text)
    .text                                    0x080182ac   Section        2  use_no_semi_2.o(.text)
    .text                                    0x080182ae   Section        0  heapauxi.o(.text)
    .text                                    0x080182b4   Section        2  use_no_semi.o(.text)
    .text                                    0x080182b6   Section        0  _rserrno.o(.text)
    .text                                    0x080182cc   Section        8  rt_errno_addr_intlibspace.o(.text)
    .text                                    0x080182d4   Section        8  libspace.o(.text)
    .text                                    0x080182dc   Section       74  sys_stackheap_outer.o(.text)
    .text                                    0x08018326   Section        0  exit.o(.text)
    i.__ARM_fpclassify                       0x08018338   Section        0  fpclassify.o(i.__ARM_fpclassify)
    i.__ARM_fpclassifyf                      0x08018368   Section        0  fpclassifyf.o(i.__ARM_fpclassifyf)
    i.__hardfp_acosf                         0x08018390   Section        0  acosf.o(i.__hardfp_acosf)
    i.__hardfp_asinf                         0x080184a8   Section        0  asinf.o(i.__hardfp_asinf)
    i.__hardfp_cos                           0x080185d8   Section        0  cos.o(i.__hardfp_cos)
    i.__hardfp_fabs                          0x080186a0   Section        0  fabs.o(i.__hardfp_fabs)
    i.__hardfp_sin                           0x080186b8   Section        0  sin.o(i.__hardfp_sin)
    i.__hardfp_sinf                          0x08018780   Section        0  sinf.o(i.__hardfp_sinf)
    i.__hardfp_sqrt                          0x08018910   Section        0  sqrt.o(i.__hardfp_sqrt)
    i.__ieee754_rem_pio2                     0x08018990   Section        0  rred.o(i.__ieee754_rem_pio2)
    i.__kernel_cos                           0x08018dc8   Section        0  cos_i.o(i.__kernel_cos)
    i.__kernel_poly                          0x08018f38   Section        0  poly.o(i.__kernel_poly)
    i.__kernel_sin                           0x08019030   Section        0  sin_i.o(i.__kernel_sin)
    i.__mathlib_dbl_infnan                   0x08019160   Section        0  dunder.o(i.__mathlib_dbl_infnan)
    i.__mathlib_dbl_invalid                  0x08019178   Section        0  dunder.o(i.__mathlib_dbl_invalid)
    i.__mathlib_dbl_underflow                0x08019198   Section        0  dunder.o(i.__mathlib_dbl_underflow)
    i.__mathlib_flt_infnan                   0x080191b8   Section        0  funder.o(i.__mathlib_flt_infnan)
    i.__mathlib_flt_invalid                  0x080191c0   Section        0  funder.o(i.__mathlib_flt_invalid)
    i.__mathlib_flt_underflow                0x080191d0   Section        0  funder.o(i.__mathlib_flt_underflow)
    i.__mathlib_rredf2                       0x080191e0   Section        0  rredf.o(i.__mathlib_rredf2)
    i.fabs                                   0x08019334   Section        0  fabs.o(i.fabs)
    i.sqrtf                                  0x0801934c   Section        0  sqrtf.o(i.sqrtf)
    x$fpl$basic                              0x0801938a   Section       24  basic.o(x$fpl$basic)
    $v0                                      0x0801938a   Number         0  basic.o(x$fpl$basic)
    x$fpl$d2f                                0x080193a4   Section       98  d2f.o(x$fpl$d2f)
    $v0                                      0x080193a4   Number         0  d2f.o(x$fpl$d2f)
    x$fpl$dadd                               0x08019408   Section      336  daddsub_clz.o(x$fpl$dadd)
    $v0                                      0x08019408   Number         0  daddsub_clz.o(x$fpl$dadd)
    _dadd1                                   0x08019419   Thumb Code     0  daddsub_clz.o(x$fpl$dadd)
    x$fpl$dcmpinf                            0x08019558   Section       24  dcmpi.o(x$fpl$dcmpinf)
    $v0                                      0x08019558   Number         0  dcmpi.o(x$fpl$dcmpinf)
    x$fpl$ddiv                               0x08019570   Section      688  ddiv.o(x$fpl$ddiv)
    $v0                                      0x08019570   Number         0  ddiv.o(x$fpl$ddiv)
    ddiv_entry                               0x08019577   Thumb Code     0  ddiv.o(x$fpl$ddiv)
    x$fpl$deqf                               0x08019820   Section      120  deqf.o(x$fpl$deqf)
    $v0                                      0x08019820   Number         0  deqf.o(x$fpl$deqf)
    x$fpl$dfix                               0x08019898   Section       94  dfix.o(x$fpl$dfix)
    $v0                                      0x08019898   Number         0  dfix.o(x$fpl$dfix)
    x$fpl$dflt                               0x080198f6   Section       46  dflt_clz.o(x$fpl$dflt)
    $v0                                      0x080198f6   Number         0  dflt_clz.o(x$fpl$dflt)
    x$fpl$dfltu                              0x08019924   Section       38  dflt_clz.o(x$fpl$dfltu)
    $v0                                      0x08019924   Number         0  dflt_clz.o(x$fpl$dfltu)
    x$fpl$dleqf                              0x0801994c   Section      120  dleqf.o(x$fpl$dleqf)
    $v0                                      0x0801994c   Number         0  dleqf.o(x$fpl$dleqf)
    x$fpl$dmul                               0x080199c4   Section      340  dmul.o(x$fpl$dmul)
    $v0                                      0x080199c4   Number         0  dmul.o(x$fpl$dmul)
    x$fpl$dnaninf                            0x08019b18   Section      156  dnaninf.o(x$fpl$dnaninf)
    $v0                                      0x08019b18   Number         0  dnaninf.o(x$fpl$dnaninf)
    x$fpl$dretinf                            0x08019bb4   Section       12  dretinf.o(x$fpl$dretinf)
    $v0                                      0x08019bb4   Number         0  dretinf.o(x$fpl$dretinf)
    x$fpl$drleqf                             0x08019bc0   Section      108  drleqf.o(x$fpl$drleqf)
    $v0                                      0x08019bc0   Number         0  drleqf.o(x$fpl$drleqf)
    x$fpl$drsb                               0x08019c2c   Section       22  daddsub_clz.o(x$fpl$drsb)
    $v0                                      0x08019c2c   Number         0  daddsub_clz.o(x$fpl$drsb)
    x$fpl$dsqrt                              0x08019c44   Section      408  dsqrt_umaal.o(x$fpl$dsqrt)
    $v0                                      0x08019c44   Number         0  dsqrt_umaal.o(x$fpl$dsqrt)
    x$fpl$dsub                               0x08019ddc   Section      468  daddsub_clz.o(x$fpl$dsub)
    $v0                                      0x08019ddc   Number         0  daddsub_clz.o(x$fpl$dsub)
    _dsub1                                   0x08019ded   Thumb Code     0  daddsub_clz.o(x$fpl$dsub)
    x$fpl$f2d                                0x08019fb0   Section       86  f2d.o(x$fpl$f2d)
    $v0                                      0x08019fb0   Number         0  f2d.o(x$fpl$f2d)
    x$fpl$fnaninf                            0x0801a006   Section      140  fnaninf.o(x$fpl$fnaninf)
    $v0                                      0x0801a006   Number         0  fnaninf.o(x$fpl$fnaninf)
    x$fpl$fpinit                             0x0801a092   Section       10  fpinit.o(x$fpl$fpinit)
    $v0                                      0x0801a092   Number         0  fpinit.o(x$fpl$fpinit)
    x$fpl$fretinf                            0x0801a09c   Section       10  fretinf.o(x$fpl$fretinf)
    $v0                                      0x0801a09c   Number         0  fretinf.o(x$fpl$fretinf)
    x$fpl$usenofp                            0x0801a0a6   Section        0  usenofp.o(x$fpl$usenofp)
    .constdata                               0x0801a0a8   Section       48  cos_i.o(.constdata)
    C                                        0x0801a0a8   Data          48  cos_i.o(.constdata)
    .constdata                               0x0801a0d8   Section      200  rred.o(.constdata)
    pio2s                                    0x0801a0d8   Data          48  rred.o(.constdata)
    twooverpi                                0x0801a108   Data         152  rred.o(.constdata)
    .constdata                               0x0801a1a0   Section       32  rredf.o(.constdata)
    twooverpi                                0x0801a1a0   Data          32  rredf.o(.constdata)
    .constdata                               0x0801a1c0   Section       40  sin_i.o(.constdata)
    S                                        0x0801a1c0   Data          40  sin_i.o(.constdata)
    .data                                    0x20000000   Section      436  aaa.o(.data)
    .data                                    0x200001b4   Section      352  main.o(.data)
    .data                                    0x20000314   Section       68  attitudealgorithm.o(.data)
    .data                                    0x20000358   Section       40  calculateslocation.o(.data)
    .data                                    0x20000380   Section        8  elmo.o(.data)
    .data                                    0x20000388   Section      111  exit.o(.data)
    .data                                    0x200003f8   Section        8  extiz.o(.data)
    .data                                    0x20000400   Section      372  fsmcompensator.o(.data)
    .data                                    0x20000578   Section      288  fsmcompensator_servo.o(.data)
    .data                                    0x20000698   Section       20  ioinit.o(.data)
    .data                                    0x200006ac   Section      120  motoroutputposse.o(.data)
    .data                                    0x20000724   Section      144  pointfunction.o(.data)
    .data                                    0x200007b4   Section      267  positionloop.o(.data)
    .data                                    0x200008c0   Section      188  servofunction.o(.data)
    .data                                    0x2000097c   Section       90  scanfunction.o(.data)
    .data                                    0x200009d8   Section       36  stm32f4xx_it.o(.data)
    .data                                    0x200009fc   Section     2048  timer.o(.data)
    .data                                    0x200011fc   Section       98  yunsufunction.o(.data)
    .data                                    0x20001260   Section       60  fy_485.o(.data)
    .data                                    0x2000129c   Section       16  saomiao.o(.data)
    .data                                    0x200012ac   Section       26  usart.o(.data)
    .data                                    0x200012c8   Section      241  receive_send_data.o(.data)
    .data                                    0x200013c0   Section      200  deg_inversesolution.o(.data)
    .data                                    0x20001488   Section       28  writeguandao.o(.data)
    .data                                    0x200014a4   Section       16  stm32f4xx_rcc.o(.data)
    APBAHBPrescTable                         0x200014a4   Data          16  stm32f4xx_rcc.o(.data)
    .data                                    0x200014b4   Section       20  system_stm32f4xx.o(.data)
    .bss                                     0x200014c8   Section      562  aaa.o(.bss)
    .bss                                     0x200016fa   Section       30  main.o(.bss)
    .bss                                     0x20001718   Section     3904  fsmcompensator.o(.bss)
    .bss                                     0x20002658   Section     2816  fsmcompensator_servo.o(.bss)
    .bss                                     0x20003158   Section       36  stm32f4xx_it.o(.bss)
    .bss                                     0x2000317c   Section    32860  timer.o(.bss)
    .bss                                     0x2000b1d8   Section     8000  rms2.o(.bss)
    .bss                                     0x2000d118   Section       68  usart.o(.bss)
    .bss                                     0x2000d15c   Section      135  receive_send_data.o(.bss)
    .bss                                     0x2000d1e3   Section       27  writeguandao.o(.bss)
    .bss                                     0x2000d200   Section       96  libspace.o(.bss)
    HEAP                                     0x2000d260   Section      512  startup_stm32f4xx.o(HEAP)
    Heap_Mem                                 0x2000d260   Data         512  startup_stm32f4xx.o(HEAP)
    STACK                                    0x2000d460   Section     1024  startup_stm32f4xx.o(STACK)
    Stack_Mem                                0x2000d460   Data        1024  startup_stm32f4xx.o(STACK)
    __initial_sp                             0x2000d860   Data           0  startup_stm32f4xx.o(STACK)

    Global Symbols

    Symbol Name                              Value     Ov Type        Size  Object(Section)

    BuildAttributes$$THM_ISAv4$E$P$D$K$B$S$7EM$VFPi3$EXTD16$VFPS$VFMA$PE$A:L22UL41UL21$X:L11$S22US41US21$IEEE1$IW$USESV6$~STKCKD$USESV7$~SHL$OTIME$ROPI$IEEEX$EBA8$UX$STANDARDLIB$REQ8$PRES8$EABIv2 0x00000000   Number         0  anon$$obj.o ABSOLUTE
    __ARM_use_no_argv                        0x00000000   Number         0  main.o ABSOLUTE
    __ARM_exceptions_init                     - Undefined Weak Reference
    __alloca_initialize                       - Undefined Weak Reference
    __arm_fini_                               - Undefined Weak Reference
    __arm_preinit_                            - Undefined Weak Reference
    __cpp_initialize__aeabi_                  - Undefined Weak Reference
    __cxa_finalize                            - Undefined Weak Reference
    __rt_locale                               - Undefined Weak Reference
    __sigvec_lookup                           - Undefined Weak Reference
    _atexit_init                              - Undefined Weak Reference
    _call_atexit_fns                          - Undefined Weak Reference
    _clock_init                               - Undefined Weak Reference
    _fp_trap_init                             - Undefined Weak Reference
    _fp_trap_shutdown                         - Undefined Weak Reference
    _get_lc_collate                           - Undefined Weak Reference
    _get_lc_ctype                             - Undefined Weak Reference
    _get_lc_monetary                          - Undefined Weak Reference
    _get_lc_numeric                           - Undefined Weak Reference
    _get_lc_time                              - Undefined Weak Reference
    _getenv_init                              - Undefined Weak Reference
    _handle_redirection                       - Undefined Weak Reference
    _init_alloc                               - Undefined Weak Reference
    _init_user_alloc                          - Undefined Weak Reference
    _initio                                   - Undefined Weak Reference
    _rand_init                                - Undefined Weak Reference
    _signal_finish                            - Undefined Weak Reference
    _signal_init                              - Undefined Weak Reference
    _terminate_alloc                          - Undefined Weak Reference
    _terminate_user_alloc                     - Undefined Weak Reference
    _terminateio                              - Undefined Weak Reference
    __Vectors_Size                           0x00000188   Number         0  startup_stm32f4xx.o ABSOLUTE
    __Vectors                                0x08000000   Data           4  startup_stm32f4xx.o(RESET)
    __Vectors_End                            0x08000188   Data           0  startup_stm32f4xx.o(RESET)
    __main                                   0x08000189   Thumb Code     8  __main.o(!!!main)
    __scatterload                            0x08000191   Thumb Code     0  __scatter.o(!!!scatter)
    __scatterload_rt2                        0x08000191   Thumb Code    44  __scatter.o(!!!scatter)
    __scatterload_rt2_thumb_only             0x08000191   Thumb Code     0  __scatter.o(!!!scatter)
    __scatterload_null                       0x0800019f   Thumb Code     0  __scatter.o(!!!scatter)
    __decompress                             0x080001c5   Thumb Code    90  __dczerorl2.o(!!dczerorl2)
    __decompress1                            0x080001c5   Thumb Code     0  __dczerorl2.o(!!dczerorl2)
    __scatterload_zeroinit                   0x08000221   Thumb Code    28  __scatter_zi.o(!!handler_zi)
    __rt_lib_init                            0x0800023d   Thumb Code     0  libinit.o(.ARM.Collect$$libinit$$00000000)
    __rt_lib_init_fp_1                       0x0800023f   Thumb Code     0  libinit2.o(.ARM.Collect$$libinit$$00000001)
    __rt_lib_init_alloca_1                   0x08000243   Thumb Code     0  libinit2.o(.ARM.Collect$$libinit$$0000002E)
    __rt_lib_init_argv_1                     0x08000243   Thumb Code     0  libinit2.o(.ARM.Collect$$libinit$$0000002C)
    __rt_lib_init_atexit_1                   0x08000243   Thumb Code     0  libinit2.o(.ARM.Collect$$libinit$$0000001B)
    __rt_lib_init_clock_1                    0x08000243   Thumb Code     0  libinit2.o(.ARM.Collect$$libinit$$00000021)
    __rt_lib_init_cpp_1                      0x08000243   Thumb Code     0  libinit2.o(.ARM.Collect$$libinit$$00000032)
    __rt_lib_init_exceptions_1               0x08000243   Thumb Code     0  libinit2.o(.ARM.Collect$$libinit$$00000030)
    __rt_lib_init_fp_trap_1                  0x08000243   Thumb Code     0  libinit2.o(.ARM.Collect$$libinit$$0000001F)
    __rt_lib_init_getenv_1                   0x08000243   Thumb Code     0  libinit2.o(.ARM.Collect$$libinit$$00000023)
    __rt_lib_init_heap_1                     0x08000243   Thumb Code     0  libinit2.o(.ARM.Collect$$libinit$$0000000A)
    __rt_lib_init_lc_collate_1               0x08000243   Thumb Code     0  libinit2.o(.ARM.Collect$$libinit$$00000011)
    __rt_lib_init_lc_ctype_1                 0x08000243   Thumb Code     0  libinit2.o(.ARM.Collect$$libinit$$00000013)
    __rt_lib_init_lc_monetary_1              0x08000243   Thumb Code     0  libinit2.o(.ARM.Collect$$libinit$$00000015)
    __rt_lib_init_lc_numeric_1               0x08000243   Thumb Code     0  libinit2.o(.ARM.Collect$$libinit$$00000017)
    __rt_lib_init_lc_time_1                  0x08000243   Thumb Code     0  libinit2.o(.ARM.Collect$$libinit$$00000019)
    __rt_lib_init_preinit_1                  0x08000243   Thumb Code     0  libinit2.o(.ARM.Collect$$libinit$$00000004)
    __rt_lib_init_rand_1                     0x08000243   Thumb Code     0  libinit2.o(.ARM.Collect$$libinit$$0000000E)
    __rt_lib_init_return                     0x08000243   Thumb Code     0  libinit2.o(.ARM.Collect$$libinit$$00000033)
    __rt_lib_init_signal_1                   0x08000243   Thumb Code     0  libinit2.o(.ARM.Collect$$libinit$$0000001D)
    __rt_lib_init_stdio_1                    0x08000243   Thumb Code     0  libinit2.o(.ARM.Collect$$libinit$$00000025)
    __rt_lib_init_user_alloc_1               0x08000243   Thumb Code     0  libinit2.o(.ARM.Collect$$libinit$$0000000C)
    __rt_lib_shutdown                        0x08000245   Thumb Code     0  libshutdown.o(.ARM.Collect$$libshutdown$$00000000)
    __rt_lib_shutdown_cpp_1                  0x08000247   Thumb Code     0  libshutdown2.o(.ARM.Collect$$libshutdown$$00000004)
    __rt_lib_shutdown_fini_1                 0x08000247   Thumb Code     0  libshutdown2.o(.ARM.Collect$$libshutdown$$00000002)
    __rt_lib_shutdown_fp_trap_1              0x08000247   Thumb Code     0  libshutdown2.o(.ARM.Collect$$libshutdown$$00000009)
    __rt_lib_shutdown_heap_1                 0x08000247   Thumb Code     0  libshutdown2.o(.ARM.Collect$$libshutdown$$00000011)
    __rt_lib_shutdown_return                 0x08000247   Thumb Code     0  libshutdown2.o(.ARM.Collect$$libshutdown$$00000012)
    __rt_lib_shutdown_signal_1               0x08000247   Thumb Code     0  libshutdown2.o(.ARM.Collect$$libshutdown$$0000000C)
    __rt_lib_shutdown_stdio_1                0x08000247   Thumb Code     0  libshutdown2.o(.ARM.Collect$$libshutdown$$00000006)
    __rt_lib_shutdown_user_alloc_1           0x08000247   Thumb Code     0  libshutdown2.o(.ARM.Collect$$libshutdown$$0000000E)
    __rt_entry                               0x08000249   Thumb Code     0  __rtentry.o(.ARM.Collect$$rtentry$$00000000)
    __rt_entry_presh_1                       0x08000249   Thumb Code     0  __rtentry2.o(.ARM.Collect$$rtentry$$00000002)
    __rt_entry_sh                            0x08000249   Thumb Code     0  __rtentry4.o(.ARM.Collect$$rtentry$$00000004)
    __rt_entry_li                            0x0800024f   Thumb Code     0  __rtentry2.o(.ARM.Collect$$rtentry$$0000000A)
    __rt_entry_postsh_1                      0x0800024f   Thumb Code     0  __rtentry2.o(.ARM.Collect$$rtentry$$00000009)
    __rt_entry_main                          0x08000253   Thumb Code     0  __rtentry2.o(.ARM.Collect$$rtentry$$0000000D)
    __rt_entry_postli_1                      0x08000253   Thumb Code     0  __rtentry2.o(.ARM.Collect$$rtentry$$0000000C)
    __rt_exit                                0x0800025b   Thumb Code     0  rtexit.o(.ARM.Collect$$rtexit$$00000000)
    __rt_exit_ls                             0x0800025d   Thumb Code     0  rtexit2.o(.ARM.Collect$$rtexit$$00000003)
    __rt_exit_prels_1                        0x0800025d   Thumb Code     0  rtexit2.o(.ARM.Collect$$rtexit$$00000002)
    __rt_exit_exit                           0x08000261   Thumb Code     0  rtexit2.o(.ARM.Collect$$rtexit$$00000004)
    ArrayToInt161                            0x08000269   Thumb Code    18  aaa.o(.text)
    AryToFloat                               0x0800027b   Thumb Code    24  aaa.o(.text)
    AA_Com_Write                             0x08000293   Thumb Code    72  aaa.o(.text)
    switch_default                           0x080002db   Thumb Code   128  aaa.o(.text)
    communication_test                       0x0800035b   Thumb Code   124  aaa.o(.text)
    check_the_time                           0x080003d7   Thumb Code   142  aaa.o(.text)
    write_JingGenZong_Data                   0x08000465   Thumb Code    28  aaa.o(.text)
    DaBao_Send_Data                          0x08000481   Thumb Code    22  aaa.o(.text)
    collecte_command                         0x08000497   Thumb Code   306  aaa.o(.text)
    navigation_set_error                     0x080005c9   Thumb Code   126  aaa.o(.text)
    navigation_set                           0x08000647   Thumb Code   230  aaa.o(.text)
    driver_set_error                         0x0800072d   Thumb Code   126  aaa.o(.text)
    driver_setting                           0x080007ab   Thumb Code   180  aaa.o(.text)
    scram_button                             0x0800085f   Thumb Code   140  aaa.o(.text)
    work_mode_change_error                   0x080008eb   Thumb Code    98  aaa.o(.text)
    make_zero                                0x0800094d   Thumb Code   140  aaa.o(.text)
    start_constantspeed_scan_error           0x080009d9   Thumb Code   126  aaa.o(.text)
    start_constantspeed_scan                 0x08000a57   Thumb Code   210  aaa.o(.text)
    start_track_error                        0x08000b29   Thumb Code   126  aaa.o(.text)
    start_track                              0x08000ba7   Thumb Code   140  aaa.o(.text)
    start_step_scan_error                    0x08000c33   Thumb Code   126  aaa.o(.text)
    start_step_scan                          0x08000cb1   Thumb Code   134  aaa.o(.text)
    start_point_to_error                     0x08000d37   Thumb Code   126  aaa.o(.text)
    start_point_to                           0x08000db5   Thumb Code  1048  aaa.o(.text)
    work_mode_change_ack                     0x080011cd   Thumb Code   124  aaa.o(.text)
    scan_speed                               0x08001249   Thumb Code   122  aaa.o(.text)
    scan_FY_step_judge                       0x080012c3   Thumb Code   122  aaa.o(.text)
    scan_FW_step_judge                       0x0800133d   Thumb Code   192  aaa.o(.text)
    scan_FY_degree_judge_1                   0x080013fd   Thumb Code   122  aaa.o(.text)
    scan_FW_degree_judge_1                   0x08001477   Thumb Code   122  aaa.o(.text)
    scan_FY_degree_judge                     0x080014f1   Thumb Code   122  aaa.o(.text)
    scan_FW_degree_judge                     0x0800156b   Thumb Code   122  aaa.o(.text)
    state_inquiry                            0x080015e5   Thumb Code   136  aaa.o(.text)
    parameter_record_error                   0x0800166d   Thumb Code   126  aaa.o(.text)
    parameter_record                         0x080016eb   Thumb Code  1166  aaa.o(.text)
    self_check                               0x08001b79   Thumb Code   248  aaa.o(.text)
    AA_Data_CL                               0x08001c71   Thumb Code  1812  aaa.o(.text)
    AA_DATA_                                 0x08002385   Thumb Code   850  aaa.o(.text)
    AA_Com_Read                              0x080026d7   Thumb Code    98  aaa.o(.text)
    AA_Data_TX                               0x08002739   Thumb Code     8  aaa.o(.text)
    make_zero_error                          0x08002741   Thumb Code   126  aaa.o(.text)
    collecte_command_error                   0x080027bf   Thumb Code   126  aaa.o(.text)
    communication_test_error                 0x0800283d   Thumb Code   124  aaa.o(.text)
    read_JingGenZong_Data                    0x080028b9   Thumb Code    26  aaa.o(.text)
    JiaoYan_Read_Data                        0x080028d3   Thumb Code   138  aaa.o(.text)
    AB_Com_Write                             0x0800295d   Thumb Code    60  aaa.o(.text)
    AB_TX                                    0x08002999   Thumb Code  1876  aaa.o(.text)
    CJ                                       0x080030ed   Thumb Code    32  aaa.o(.text)
    AB_DATA_RX                               0x0800310d   Thumb Code  1372  aaa.o(.text)
    AB_Com_Read                              0x08003669   Thumb Code    64  aaa.o(.text)
    main                                     0x0800376d   Thumb Code   280  main.o(.text)
    AryToFloat_1                             0x08003885   Thumb Code    24  main.o(.text)
    Read_Flash                               0x0800389d   Thumb Code   134  main.o(.text)
    CAN1_Mode_Init                           0x08003971   Thumb Code   228  can.o(.text)
    CAN2_Mode_Init                           0x08003a55   Thumb Code   230  can.o(.text)
    CAN1_Mode_Init1                          0x08003b3b   Thumb Code   224  can.o(.text)
    CAN2_Mode_Init2                          0x08003c1b   Thumb Code   224  can.o(.text)
    NVIC_config                              0x08003cfb   Thumb Code    68  can.o(.text)
    wRS_FY                                   0x08003d4d   Thumb Code    84  elmo.o(.text)
    wRS_FW                                   0x08003da1   Thumb Code    84  elmo.o(.text)
    wUM                                      0x08003df5   Thumb Code    90  elmo.o(.text)
    rUM                                      0x08003e4f   Thumb Code    72  elmo.o(.text)
    wJV                                      0x08003e97   Thumb Code   154  elmo.o(.text)
    rPA                                      0x08003f31   Thumb Code    74  elmo.o(.text)
    wPA_FY                                   0x08003f7b   Thumb Code   154  elmo.o(.text)
    wPA_FW                                   0x08004015   Thumb Code   154  elmo.o(.text)
    wPR_FY                                   0x080040af   Thumb Code   154  elmo.o(.text)
    wPR_FW                                   0x08004149   Thumb Code   176  elmo.o(.text)
    wPX_FY                                   0x080041f9   Thumb Code   164  elmo.o(.text)
    wPX_FW                                   0x0800429d   Thumb Code   164  elmo.o(.text)
    rTC                                      0x08004341   Thumb Code    74  elmo.o(.text)
    rMO                                      0x0800438b   Thumb Code    74  elmo.o(.text)
    wMO_FY                                   0x080043d5   Thumb Code    90  elmo.o(.text)
    wMO_FW                                   0x0800442f   Thumb Code    90  elmo.o(.text)
    rSP                                      0x08004489   Thumb Code    74  elmo.o(.text)
    wSP_FY                                   0x080044d3   Thumb Code   142  elmo.o(.text)
    wSP_FW                                   0x08004561   Thumb Code   168  elmo.o(.text)
    wAC_FY                                   0x08004609   Thumb Code   142  elmo.o(.text)
    wAC_FW                                   0x08004697   Thumb Code   142  elmo.o(.text)
    wDC_FY                                   0x08004725   Thumb Code   142  elmo.o(.text)
    wDC_FW                                   0x080047b3   Thumb Code   142  elmo.o(.text)
    wSD_FY                                   0x08004841   Thumb Code   142  elmo.o(.text)
    wSD_FW                                   0x080048cf   Thumb Code   142  elmo.o(.text)
    wSF_FY                                   0x0800495d   Thumb Code   180  elmo.o(.text)
    wSF_FW                                   0x08004a11   Thumb Code   142  elmo.o(.text)
    rHM                                      0x08004a9f   Thumb Code    74  elmo.o(.text)
    wHM                                      0x08004ae9   Thumb Code    92  elmo.o(.text)
    f_to_i                                   0x08004b45   Thumb Code    28  elmo.o(.text)
    wTC                                      0x08004b61   Thumb Code   148  elmo.o(.text)
    wCL                                      0x08004bf5   Thumb Code   138  elmo.o(.text)
    wPL                                      0x08004c7f   Thumb Code   138  elmo.o(.text)
    wBG_FY                                   0x08004d09   Thumb Code    72  elmo.o(.text)
    wBG_FW                                   0x08004d51   Thumb Code    72  elmo.o(.text)
    wST_FY                                   0x08004d99   Thumb Code    72  elmo.o(.text)
    wST_FW                                   0x08004de1   Thumb Code    94  elmo.o(.text)
    rPX_FY                                   0x08004e3f   Thumb Code    92  elmo.o(.text)
    rPX_FW                                   0x08004e9b   Thumb Code    92  elmo.o(.text)
    rPE                                      0x08004ef7   Thumb Code    74  elmo.o(.text)
    rVX                                      0x08004f41   Thumb Code    74  elmo.o(.text)
    rVE                                      0x08004f8b   Thumb Code    74  elmo.o(.text)
    rAC                                      0x08004fd5   Thumb Code    74  elmo.o(.text)
    rIQ                                      0x0800501f   Thumb Code    74  elmo.o(.text)
    rIQ_FW                                   0x08005069   Thumb Code    74  elmo.o(.text)
    EC_FWRead                                0x080050b3   Thumb Code    74  elmo.o(.text)
    MF_FWRead                                0x080050fd   Thumb Code    74  elmo.o(.text)
    SR_FWRead                                0x08005147   Thumb Code    74  elmo.o(.text)
    AN_1_FWRead                              0x08005191   Thumb Code    74  elmo.o(.text)
    AN_2_FWRead                              0x080051db   Thumb Code    82  elmo.o(.text)
    AN_3_FWRead                              0x0800522d   Thumb Code    74  elmo.o(.text)
    AN_4_FWRead                              0x08005277   Thumb Code    74  elmo.o(.text)
    EE_1_FWRead                              0x080052c1   Thumb Code    74  elmo.o(.text)
    TI_1_FWRead                              0x0800530b   Thumb Code    74  elmo.o(.text)
    PX_FWRead                                0x08005355   Thumb Code    74  elmo.o(.text)
    VX_FWRead                                0x0800539f   Thumb Code    74  elmo.o(.text)
    SO_FWRead                                0x080053e9   Thumb Code    74  elmo.o(.text)
    PY_FWRead                                0x08005433   Thumb Code    74  elmo.o(.text)
    WD_FW_Read                               0x0800547d   Thumb Code    74  elmo.o(.text)
    WD_FY_Read                               0x080054c7   Thumb Code    74  elmo.o(.text)
    EC_FYRead                                0x08005511   Thumb Code    74  elmo.o(.text)
    MF_FYRead                                0x0800555b   Thumb Code    74  elmo.o(.text)
    SR_FYRead                                0x080055a5   Thumb Code    74  elmo.o(.text)
    AN_1_FYRead                              0x080055ef   Thumb Code    82  elmo.o(.text)
    AN_2_FYRead                              0x08005641   Thumb Code    74  elmo.o(.text)
    AN_3_FYRead                              0x0800568b   Thumb Code    74  elmo.o(.text)
    AN_4_FYRead                              0x080056d5   Thumb Code    74  elmo.o(.text)
    EE_1_FYRead                              0x0800571f   Thumb Code    74  elmo.o(.text)
    TI_1_FYRead                              0x08005769   Thumb Code    74  elmo.o(.text)
    PX_FYRead                                0x080057b3   Thumb Code    74  elmo.o(.text)
    VX_FYRead                                0x080057fd   Thumb Code    74  elmo.o(.text)
    SO_FYRead                                0x08005847   Thumb Code    74  elmo.o(.text)
    wAS_FY                                   0x08005891   Thumb Code   148  elmo.o(.text)
    EXTI9_5_IRQHandler                       0x08005929   Thumb Code    26  extiz.o(.text)
    EXTIX2_Init                              0x08005943   Thumb Code    84  extiz.o(.text)
    bsp_InitFsmc                             0x080059a5   Thumb Code   660  fsmc.o(.text)
    FsmTustin2                               0x08005c49   Thumb Code  1094  fsmcompensator.o(.text)
    AskFsmLeadLag2Para                       0x0800608f   Thumb Code   564  fsmcompensator.o(.text)
    FsmTustin1                               0x080062c3   Thumb Code   526  fsmcompensator.o(.text)
    AskFsmLeadLag1Para                       0x080064d1   Thumb Code   356  fsmcompensator.o(.text)
    AskFsmLeadLag4Para                       0x08006635   Thumb Code  5628  fsmcompensator.o(.text)
    AskFsmLeadLag3Para                       0x08007c31   Thumb Code  3012  fsmcompensator.o(.text)
    AskfsmFilterPara                         0x080087f5   Thumb Code  1346  fsmcompensator.o(.text)
    FsmLeadLag1                              0x08008d37   Thumb Code   220  fsmcompensator.o(.text)
    FsmLeadLag2                              0x08008e13   Thumb Code   380  fsmcompensator.o(.text)
    FsmLeadLag3                              0x08008f8f   Thumb Code   654  fsmcompensator.o(.text)
    Ask2ParaShake                            0x0800921d   Thumb Code   390  fsmcompensator.o(.text)
    Ask2ParaNotchfilter                      0x080093a3   Thumb Code   532  fsmcompensator.o(.text)
    AskFsmNotchPara                          0x080095b7   Thumb Code   548  fsmcompensator.o(.text)
    MeanFilter                               0x080097db   Thumb Code   160  fsmcompensator.o(.text)
    FsmTustin2_servo                         0x080098b9   Thumb Code  1094  fsmcompensator_servo.o(.text)
    AskFsmLeadLag2Para_servo                 0x08009cff   Thumb Code   632  fsmcompensator_servo.o(.text)
    Ask2ParaNotchfilter_servo                0x08009f77   Thumb Code   498  fsmcompensator_servo.o(.text)
    Ask2ParaShake_servo                      0x0800a169   Thumb Code   390  fsmcompensator_servo.o(.text)
    FsmTustin1_servo                         0x0800a2ef   Thumb Code   450  fsmcompensator_servo.o(.text)
    AskFsmLeadLag1Para_servo                 0x0800a4b1   Thumb Code   398  fsmcompensator_servo.o(.text)
    AskFsmNotchPara_servo                    0x0800a63f   Thumb Code   548  fsmcompensator_servo.o(.text)
    AskfsmFilterPara_servo                   0x0800a863   Thumb Code  1082  fsmcompensator_servo.o(.text)
    FsmLeadLag1_servo                        0x0800ac9d   Thumb Code   220  fsmcompensator_servo.o(.text)
    FsmLeadLag2_servo                        0x0800ad79   Thumb Code   594  fsmcompensator_servo.o(.text)
    IO_Init                                  0x0800afdd   Thumb Code   258  ioinit.o(.text)
    Delay_ms                                 0x0800b0df   Thumb Code    38  ioinit.o(.text)
    Delay_us                                 0x0800b105   Thumb Code    34  ioinit.o(.text)
    DA12_out                                 0x0800b127   Thumb Code   396  ioinit.o(.text)
    velocity_to_voltage                      0x0800b311   Thumb Code    20  motoroutputposse.o(.text)
    limit_velocity                           0x0800b325   Thumb Code    62  motoroutputposse.o(.text)
    FeedForwardFW                            0x0800b363   Thumb Code   102  motoroutputposse.o(.text)
    BeginMortorFW                            0x0800b3c9   Thumb Code   102  motoroutputposse.o(.text)
    FeedForwardFY                            0x0800b42f   Thumb Code    82  motoroutputposse.o(.text)
    BeginMortorFY                            0x0800b481   Thumb Code   102  motoroutputposse.o(.text)
    StopMortorFW                             0x0800b4e7   Thumb Code     2  motoroutputposse.o(.text)
    StopMortorFY                             0x0800b4e9   Thumb Code     2  motoroutputposse.o(.text)
    limit_accelerate                         0x0800b4eb   Thumb Code    74  motoroutputposse.o(.text)
    point_to                                 0x0800b59d   Thumb Code    88  pointfunction.o(.text)
    SpacePoint                               0x0800b5f5   Thumb Code   186  pointfunction.o(.text)
    fy_close_loop                            0x0800b719   Thumb Code  1688  positionloop.o(.text)
    fw_close_loop                            0x0800bdb1   Thumb Code  1774  positionloop.o(.text)
    fw_tuoluo_close_loop                     0x0800c49f   Thumb Code   254  positionloop.o(.text)
    fy_tuoluo_close_loop                     0x0800c59d   Thumb Code   258  positionloop.o(.text)
    miss_distance_track                      0x0800c71d   Thumb Code  2180  servofunction.o(.text)
    ServoFunction                            0x0800cfa1   Thumb Code   540  servofunction.o(.text)
    NMI_Handler                              0x0800d225   Thumb Code     2  stm32f4xx_it.o(.text)
    HardFault_Handler                        0x0800d227   Thumb Code     4  stm32f4xx_it.o(.text)
    MemManage_Handler                        0x0800d22b   Thumb Code     4  stm32f4xx_it.o(.text)
    BusFault_Handler                         0x0800d22f   Thumb Code     4  stm32f4xx_it.o(.text)
    UsageFault_Handler                       0x0800d233   Thumb Code     4  stm32f4xx_it.o(.text)
    SVC_Handler                              0x0800d237   Thumb Code     2  stm32f4xx_it.o(.text)
    DebugMon_Handler                         0x0800d239   Thumb Code     2  stm32f4xx_it.o(.text)
    PendSV_Handler                           0x0800d23b   Thumb Code     2  stm32f4xx_it.o(.text)
    SysTick_Handler                          0x0800d23d   Thumb Code     2  stm32f4xx_it.o(.text)
    CAN2_RX0_IRQHandler                      0x0800d23f   Thumb Code  1716  stm32f4xx_it.o(.text)
    CAN1_RX0_IRQHandler                      0x0800d8f3   Thumb Code  2830  stm32f4xx_it.o(.text)
    STMFLASH_ReadWord                        0x0800e41d   Thumb Code     6  stmflash.o(.text)
    STMFLASH_GetFlashSector                  0x0800e423   Thumb Code   116  stmflash.o(.text)
    STMFLASH_Write                           0x0800e497   Thumb Code   146  stmflash.o(.text)
    STMFLASH_Read                            0x0800e529   Thumb Code    32  stmflash.o(.text)
    RMS2_vol                                 0x0800e579   Thumb Code   128  timer.o(.text)
    RMS2_vol1                                0x0800e5f9   Thumb Code    74  timer.o(.text)
    RMS2_vol2                                0x0800e643   Thumb Code    74  timer.o(.text)
    TIM10_Init                               0x0800e68d   Thumb Code   114  timer.o(.text)
    reset_zero                               0x0800e6ff   Thumb Code    74  timer.o(.text)
    power_down                               0x0800e749   Thumb Code    24  timer.o(.text)
    para_set                                 0x0800e761   Thumb Code   448  timer.o(.text)
    get_optical_navigation                   0x0800e921   Thumb Code    20  timer.o(.text)
    read_inertial_navigation                 0x0800e935   Thumb Code  1370  timer.o(.text)
    read_FW_encoder                          0x0800ee8f   Thumb Code   604  timer.o(.text)
    read_FY_encoder                          0x0800f0eb   Thumb Code   452  timer.o(.text)
    read_miss_distance                       0x0800f2af   Thumb Code   636  timer.o(.text)
    TIM1_UP_TIM10_IRQHandler                 0x0800f52b   Thumb Code  5718  timer.o(.text)
    read_M1tuoluo                            0x08010b81   Thumb Code   218  timer.o(.text)
    Ary4ToFloat                              0x08010c5b   Thumb Code    24  timer.o(.text)
    read_labview_set                         0x08010c73   Thumb Code   838  timer.o(.text)
    read_LVDS                                0x08010fb9   Thumb Code   110  timer.o(.text)
    write_LVDS                               0x08011027   Thumb Code   180  timer.o(.text)
    read_temperature                         0x080110db   Thumb Code   118  timer.o(.text)
    small_navigation_calculate               0x08011151   Thumb Code    86  timer.o(.text)
    ReadImuData                              0x080111a7   Thumb Code   276  timer.o(.text)
    motor_move                               0x080112bb   Thumb Code   104  timer.o(.text)
    read_master_control                      0x08011323   Thumb Code    30  timer.o(.text)
    read_jishangguandao                      0x08011341   Thumb Code    22  timer.o(.text)
    space_scan                               0x08011357   Thumb Code     2  timer.o(.text)
    getFY_chafen_speed                       0x08011359   Thumb Code    24  timer.o(.text)
    getFW_chafen_speed                       0x08011371   Thumb Code    24  timer.o(.text)
    CaiJiMingLing_YingDa                     0x08011389   Thumb Code   994  timer.o(.text)
    ZiJian_YingDa                            0x0801176b   Thumb Code   626  timer.o(.text)
    ZhuangTaiChaXun_YingDa                   0x080119dd   Thumb Code   532  timer.o(.text)
    ZhiXiang_YingDa                          0x08011bf1   Thumb Code   270  timer.o(.text)
    BuJinSaoMiao_YingDa                      0x08011cff   Thumb Code   260  timer.o(.text)
    GenZong_YingDa                           0x08011e03   Thumb Code   260  timer.o(.text)
    YunSuSaoMiao_YingDa                      0x08011f07   Thumb Code   314  timer.o(.text)
    HuiLing_YingDa                           0x08012041   Thumb Code   260  timer.o(.text)
    JiTing_YingDa                            0x08012145   Thumb Code   260  timer.o(.text)
    BuJinSaoMiao                             0x08012249   Thumb Code   636  timer.o(.text)
    getFW_step_chafen_speed                  0x080124c5   Thumb Code    24  timer.o(.text)
    getFY_step_chafen_speed                  0x080124dd   Thumb Code    24  timer.o(.text)
    touluo_DATA_FW_Parse                     0x080124f5   Thumb Code   432  timer.o(.text)
    Com_Read_FW_touluo                       0x080126a5   Thumb Code    50  timer.o(.text)
    Com_Write_FW_touluo                      0x080126d7   Thumb Code    48  timer.o(.text)
    touluo_Data_FW_TX                        0x08012707   Thumb Code     2  timer.o(.text)
    touluo_DATA_FY_Parse                     0x08012709   Thumb Code   634  timer.o(.text)
    Com_Read_FY_touluo                       0x08012983   Thumb Code    34  timer.o(.text)
    Com_Write_FY_touluo                      0x080129a5   Thumb Code    32  timer.o(.text)
    touluo_Data_FY_TX                        0x080129c5   Thumb Code     2  timer.o(.text)
    CalculateRMS_1                           0x080129fd   Thumb Code   244  rms2.o(.text)
    CalculateRMS_2                           0x08012af1   Thumb Code   244  rms2.o(.text)
    SaoMiao_Init                             0x08012bfd   Thumb Code   428  saomiao.o(.text)
    _sys_exit                                0x08012dc9   Thumb Code     4  usart.o(.text)
    fputc                                    0x08012dcd   Thumb Code    22  usart.o(.text)
    uart4_init                               0x08012de3   Thumb Code   160  usart.o(.text)
    uart2_init                               0x08012e83   Thumb Code   164  usart.o(.text)
    uart3_init                               0x08012f27   Thumb Code   174  usart.o(.text)
    UART4_IRQnHandler                        0x08012fd5   Thumb Code    56  usart.o(.text)
    USART2_IRQHandler                        0x0801300d   Thumb Code    56  usart.o(.text)
    USART3_IRQHandler                        0x08013045   Thumb Code    56  usart.o(.text)
    Com_Write                                0x0801307d   Thumb Code    44  usart.o(.text)
    Com_Read                                 0x080130a9   Thumb Code    56  usart.o(.text)
    SF_Com_Falg_Read                         0x080130e1   Thumb Code   602  usart.o(.text)
    Receive_DATA_Parse                       0x0801338d   Thumb Code   496  receive_send_data.o(.text)
    Receive_Shangweiji_DATA_Parse            0x0801357d   Thumb Code     2  receive_send_data.o(.text)
    Receive_DATA_Parse_2th                   0x0801357f   Thumb Code   426  receive_send_data.o(.text)
    Send_JiXiaData_Write                     0x08013729   Thumb Code    30  receive_send_data.o(.text)
    Send_Data_TX                             0x08013747   Thumb Code   910  receive_send_data.o(.text)
    Send_SW_Data_Write                       0x08013ad5   Thumb Code    30  receive_send_data.o(.text)
    Send_SW_Data_TX                          0x08013af3   Thumb Code   434  receive_send_data.o(.text)
    Send_Data_TX_SPM                         0x08013ca5   Thumb Code   720  receive_send_data.o(.text)
    Receive_JiShangData_Read                 0x08013f75   Thumb Code    32  receive_send_data.o(.text)
    Receive_ShangweijiData_Read              0x08013f95   Thumb Code    32  receive_send_data.o(.text)
    Receive_Suidong_GS                       0x08013fb5   Thumb Code   568  receive_send_data.o(.text)
    Receive_Deadscale_Suidong_GS             0x080141ed   Thumb Code   288  receive_send_data.o(.text)
    Receive_DBJsuidong_Read                  0x0801430d   Thumb Code    46  receive_send_data.o(.text)
    Deg_CloseLoop                            0x0801438d   Thumb Code   128  deg_inversesolution.o(.text)
    Deg_InverseSolution                      0x0801440d   Thumb Code  2434  deg_inversesolution.o(.text)
    SinBode                                  0x08014d8f   Thumb Code   242  deg_inversesolution.o(.text)
    WriteGuanDao                             0x08014edd   Thumb Code   334  writeguandao.o(.text)
    Reset_Handler                            0x08015069   Thumb Code     8  startup_stm32f4xx.o(.text)
    ADC_IRQHandler                           0x08015083   Thumb Code     0  startup_stm32f4xx.o(.text)
    CAN1_RX1_IRQHandler                      0x08015083   Thumb Code     0  startup_stm32f4xx.o(.text)
    CAN1_SCE_IRQHandler                      0x08015083   Thumb Code     0  startup_stm32f4xx.o(.text)
    CAN1_TX_IRQHandler                       0x08015083   Thumb Code     0  startup_stm32f4xx.o(.text)
    CAN2_RX1_IRQHandler                      0x08015083   Thumb Code     0  startup_stm32f4xx.o(.text)
    CAN2_SCE_IRQHandler                      0x08015083   Thumb Code     0  startup_stm32f4xx.o(.text)
    CAN2_TX_IRQHandler                       0x08015083   Thumb Code     0  startup_stm32f4xx.o(.text)
    CRYP_IRQHandler                          0x08015083   Thumb Code     0  startup_stm32f4xx.o(.text)
    DCMI_IRQHandler                          0x08015083   Thumb Code     0  startup_stm32f4xx.o(.text)
    DMA1_Stream0_IRQHandler                  0x08015083   Thumb Code     0  startup_stm32f4xx.o(.text)
    DMA1_Stream1_IRQHandler                  0x08015083   Thumb Code     0  startup_stm32f4xx.o(.text)
    DMA1_Stream2_IRQHandler                  0x08015083   Thumb Code     0  startup_stm32f4xx.o(.text)
    DMA1_Stream3_IRQHandler                  0x08015083   Thumb Code     0  startup_stm32f4xx.o(.text)
    DMA1_Stream4_IRQHandler                  0x08015083   Thumb Code     0  startup_stm32f4xx.o(.text)
    DMA1_Stream5_IRQHandler                  0x08015083   Thumb Code     0  startup_stm32f4xx.o(.text)
    DMA1_Stream6_IRQHandler                  0x08015083   Thumb Code     0  startup_stm32f4xx.o(.text)
    DMA1_Stream7_IRQHandler                  0x08015083   Thumb Code     0  startup_stm32f4xx.o(.text)
    DMA2_Stream0_IRQHandler                  0x08015083   Thumb Code     0  startup_stm32f4xx.o(.text)
    DMA2_Stream1_IRQHandler                  0x08015083   Thumb Code     0  startup_stm32f4xx.o(.text)
    DMA2_Stream2_IRQHandler                  0x08015083   Thumb Code     0  startup_stm32f4xx.o(.text)
    DMA2_Stream3_IRQHandler                  0x08015083   Thumb Code     0  startup_stm32f4xx.o(.text)
    DMA2_Stream4_IRQHandler                  0x08015083   Thumb Code     0  startup_stm32f4xx.o(.text)
    DMA2_Stream5_IRQHandler                  0x08015083   Thumb Code     0  startup_stm32f4xx.o(.text)
    DMA2_Stream6_IRQHandler                  0x08015083   Thumb Code     0  startup_stm32f4xx.o(.text)
    DMA2_Stream7_IRQHandler                  0x08015083   Thumb Code     0  startup_stm32f4xx.o(.text)
    ETH_IRQHandler                           0x08015083   Thumb Code     0  startup_stm32f4xx.o(.text)
    ETH_WKUP_IRQHandler                      0x08015083   Thumb Code     0  startup_stm32f4xx.o(.text)
    EXTI0_IRQHandler                         0x08015083   Thumb Code     0  startup_stm32f4xx.o(.text)
    EXTI15_10_IRQHandler                     0x08015083   Thumb Code     0  startup_stm32f4xx.o(.text)
    EXTI1_IRQHandler                         0x08015083   Thumb Code     0  startup_stm32f4xx.o(.text)
    EXTI2_IRQHandler                         0x08015083   Thumb Code     0  startup_stm32f4xx.o(.text)
    EXTI3_IRQHandler                         0x08015083   Thumb Code     0  startup_stm32f4xx.o(.text)
    EXTI4_IRQHandler                         0x08015083   Thumb Code     0  startup_stm32f4xx.o(.text)
    FLASH_IRQHandler                         0x08015083   Thumb Code     0  startup_stm32f4xx.o(.text)
    FPU_IRQHandler                           0x08015083   Thumb Code     0  startup_stm32f4xx.o(.text)
    FSMC_IRQHandler                          0x08015083   Thumb Code     0  startup_stm32f4xx.o(.text)
    HASH_RNG_IRQHandler                      0x08015083   Thumb Code     0  startup_stm32f4xx.o(.text)
    I2C1_ER_IRQHandler                       0x08015083   Thumb Code     0  startup_stm32f4xx.o(.text)
    I2C1_EV_IRQHandler                       0x08015083   Thumb Code     0  startup_stm32f4xx.o(.text)
    I2C2_ER_IRQHandler                       0x08015083   Thumb Code     0  startup_stm32f4xx.o(.text)
    I2C2_EV_IRQHandler                       0x08015083   Thumb Code     0  startup_stm32f4xx.o(.text)
    I2C3_ER_IRQHandler                       0x08015083   Thumb Code     0  startup_stm32f4xx.o(.text)
    I2C3_EV_IRQHandler                       0x08015083   Thumb Code     0  startup_stm32f4xx.o(.text)
    OTG_FS_IRQHandler                        0x08015083   Thumb Code     0  startup_stm32f4xx.o(.text)
    OTG_FS_WKUP_IRQHandler                   0x08015083   Thumb Code     0  startup_stm32f4xx.o(.text)
    OTG_HS_EP1_IN_IRQHandler                 0x08015083   Thumb Code     0  startup_stm32f4xx.o(.text)
    OTG_HS_EP1_OUT_IRQHandler                0x08015083   Thumb Code     0  startup_stm32f4xx.o(.text)
    OTG_HS_IRQHandler                        0x08015083   Thumb Code     0  startup_stm32f4xx.o(.text)
    OTG_HS_WKUP_IRQHandler                   0x08015083   Thumb Code     0  startup_stm32f4xx.o(.text)
    PVD_IRQHandler                           0x08015083   Thumb Code     0  startup_stm32f4xx.o(.text)
    RCC_IRQHandler                           0x08015083   Thumb Code     0  startup_stm32f4xx.o(.text)
    RTC_Alarm_IRQHandler                     0x08015083   Thumb Code     0  startup_stm32f4xx.o(.text)
    RTC_WKUP_IRQHandler                      0x08015083   Thumb Code     0  startup_stm32f4xx.o(.text)
    SDIO_IRQHandler                          0x08015083   Thumb Code     0  startup_stm32f4xx.o(.text)
    SPI1_IRQHandler                          0x08015083   Thumb Code     0  startup_stm32f4xx.o(.text)
    SPI2_IRQHandler                          0x08015083   Thumb Code     0  startup_stm32f4xx.o(.text)
    SPI3_IRQHandler                          0x08015083   Thumb Code     0  startup_stm32f4xx.o(.text)
    TAMP_STAMP_IRQHandler                    0x08015083   Thumb Code     0  startup_stm32f4xx.o(.text)
    TIM1_BRK_TIM9_IRQHandler                 0x08015083   Thumb Code     0  startup_stm32f4xx.o(.text)
    TIM1_CC_IRQHandler                       0x08015083   Thumb Code     0  startup_stm32f4xx.o(.text)
    TIM1_TRG_COM_TIM11_IRQHandler            0x08015083   Thumb Code     0  startup_stm32f4xx.o(.text)
    TIM2_IRQHandler                          0x08015083   Thumb Code     0  startup_stm32f4xx.o(.text)
    TIM3_IRQHandler                          0x08015083   Thumb Code     0  startup_stm32f4xx.o(.text)
    TIM4_IRQHandler                          0x08015083   Thumb Code     0  startup_stm32f4xx.o(.text)
    TIM5_IRQHandler                          0x08015083   Thumb Code     0  startup_stm32f4xx.o(.text)
    TIM6_DAC_IRQHandler                      0x08015083   Thumb Code     0  startup_stm32f4xx.o(.text)
    TIM7_IRQHandler                          0x08015083   Thumb Code     0  startup_stm32f4xx.o(.text)
    TIM8_BRK_TIM12_IRQHandler                0x08015083   Thumb Code     0  startup_stm32f4xx.o(.text)
    TIM8_CC_IRQHandler                       0x08015083   Thumb Code     0  startup_stm32f4xx.o(.text)
    TIM8_TRG_COM_TIM14_IRQHandler            0x08015083   Thumb Code     0  startup_stm32f4xx.o(.text)
    TIM8_UP_TIM13_IRQHandler                 0x08015083   Thumb Code     0  startup_stm32f4xx.o(.text)
    UART4_IRQHandler                         0x08015083   Thumb Code     0  startup_stm32f4xx.o(.text)
    UART5_IRQHandler                         0x08015083   Thumb Code     0  startup_stm32f4xx.o(.text)
    USART1_IRQHandler                        0x08015083   Thumb Code     0  startup_stm32f4xx.o(.text)
    USART6_IRQHandler                        0x08015083   Thumb Code     0  startup_stm32f4xx.o(.text)
    WWDG_IRQHandler                          0x08015083   Thumb Code     0  startup_stm32f4xx.o(.text)
    __user_initial_stackheap                 0x08015085   Thumb Code     0  startup_stm32f4xx.o(.text)
    NVIC_PriorityGroupConfig                 0x080150a9   Thumb Code    10  misc.o(.text)
    NVIC_Init                                0x080150b3   Thumb Code   106  misc.o(.text)
    NVIC_SetVectorTable                      0x0801511d   Thumb Code    14  misc.o(.text)
    NVIC_SystemLPConfig                      0x0801512b   Thumb Code    34  misc.o(.text)
    SysTick_CLKSourceConfig                  0x0801514d   Thumb Code    40  misc.o(.text)
    CAN_DeInit                               0x08015189   Thumb Code    50  stm32f4xx_can.o(.text)
    CAN_Init                                 0x080151bb   Thumb Code   276  stm32f4xx_can.o(.text)
    CAN_FilterInit                           0x080152cf   Thumb Code   258  stm32f4xx_can.o(.text)
    CAN_StructInit                           0x080153d1   Thumb Code    32  stm32f4xx_can.o(.text)
    CAN_SlaveStartBank                       0x080153f1   Thumb Code    48  stm32f4xx_can.o(.text)
    CAN_DBGFreeze                            0x08015421   Thumb Code    22  stm32f4xx_can.o(.text)
    CAN_TTComModeCmd                         0x08015437   Thumb Code   118  stm32f4xx_can.o(.text)
    CAN_Transmit                             0x080154ad   Thumb Code   304  stm32f4xx_can.o(.text)
    CAN_TransmitStatus                       0x080155dd   Thumb Code   138  stm32f4xx_can.o(.text)
    CAN_CancelTransmit                       0x08015667   Thumb Code    48  stm32f4xx_can.o(.text)
    CAN_Receive                              0x08015697   Thumb Code   240  stm32f4xx_can.o(.text)
    CAN_FIFORelease                          0x08015787   Thumb Code    22  stm32f4xx_can.o(.text)
    CAN_MessagePending                       0x0801579d   Thumb Code    30  stm32f4xx_can.o(.text)
    CAN_OperatingModeRequest                 0x080157bb   Thumb Code   162  stm32f4xx_can.o(.text)
    CAN_Sleep                                0x0801585d   Thumb Code    30  stm32f4xx_can.o(.text)
    CAN_WakeUp                               0x0801587b   Thumb Code    48  stm32f4xx_can.o(.text)
    CAN_GetLastErrorCode                     0x080158ab   Thumb Code    12  stm32f4xx_can.o(.text)
    CAN_GetReceiveErrorCounter               0x080158b7   Thumb Code    10  stm32f4xx_can.o(.text)
    CAN_GetLSBTransmitErrorCounter           0x080158c1   Thumb Code    12  stm32f4xx_can.o(.text)
    CAN_ITConfig                             0x080158cd   Thumb Code    18  stm32f4xx_can.o(.text)
    CAN_GetFlagStatus                        0x080158df   Thumb Code   120  stm32f4xx_can.o(.text)
    CAN_ClearFlag                            0x08015957   Thumb Code    52  stm32f4xx_can.o(.text)
    CAN_GetITStatus                          0x0801599d   Thumb Code   310  stm32f4xx_can.o(.text)
    CAN_ClearITPendingBit                    0x08015ad3   Thumb Code   162  stm32f4xx_can.o(.text)
    EXTI_DeInit                              0x08015b79   Thumb Code    28  stm32f4xx_exti.o(.text)
    EXTI_Init                                0x08015b95   Thumb Code   142  stm32f4xx_exti.o(.text)
    EXTI_StructInit                          0x08015c23   Thumb Code    16  stm32f4xx_exti.o(.text)
    EXTI_GenerateSWInterrupt                 0x08015c33   Thumb Code    16  stm32f4xx_exti.o(.text)
    EXTI_GetFlagStatus                       0x08015c43   Thumb Code    22  stm32f4xx_exti.o(.text)
    EXTI_ClearFlag                           0x08015c59   Thumb Code     8  stm32f4xx_exti.o(.text)
    EXTI_GetITStatus                         0x08015c61   Thumb Code    34  stm32f4xx_exti.o(.text)
    EXTI_ClearITPendingBit                   0x08015c83   Thumb Code     8  stm32f4xx_exti.o(.text)
    FLASH_SetLatency                         0x08015c95   Thumb Code     6  stm32f4xx_flash.o(.text)
    FLASH_PrefetchBufferCmd                  0x08015c9b   Thumb Code    30  stm32f4xx_flash.o(.text)
    FLASH_InstructionCacheCmd                0x08015cb9   Thumb Code    30  stm32f4xx_flash.o(.text)
    FLASH_DataCacheCmd                       0x08015cd7   Thumb Code    30  stm32f4xx_flash.o(.text)
    FLASH_InstructionCacheReset              0x08015cf5   Thumb Code    14  stm32f4xx_flash.o(.text)
    FLASH_DataCacheReset                     0x08015d03   Thumb Code    14  stm32f4xx_flash.o(.text)
    FLASH_Unlock                             0x08015d11   Thumb Code    26  stm32f4xx_flash.o(.text)
    FLASH_Lock                               0x08015d2b   Thumb Code    18  stm32f4xx_flash.o(.text)
    FLASH_GetStatus                          0x08015d3d   Thumb Code    74  stm32f4xx_flash.o(.text)
    FLASH_WaitForLastOperation               0x08015d87   Thumb Code    34  stm32f4xx_flash.o(.text)
    FLASH_EraseSector                        0x08015da9   Thumb Code   140  stm32f4xx_flash.o(.text)
    FLASH_EraseAllSectors                    0x08015e35   Thumb Code   112  stm32f4xx_flash.o(.text)
    FLASH_ProgramDoubleWord                  0x08015ea5   Thumb Code    86  stm32f4xx_flash.o(.text)
    FLASH_ProgramWord                        0x08015efb   Thumb Code    82  stm32f4xx_flash.o(.text)
    FLASH_ProgramHalfWord                    0x08015f4d   Thumb Code    82  stm32f4xx_flash.o(.text)
    FLASH_ProgramByte                        0x08015f9f   Thumb Code    78  stm32f4xx_flash.o(.text)
    FLASH_OB_Unlock                          0x08015fed   Thumb Code    26  stm32f4xx_flash.o(.text)
    FLASH_OB_Lock                            0x08016007   Thumb Code    18  stm32f4xx_flash.o(.text)
    FLASH_OB_WRPConfig                       0x08016019   Thumb Code    54  stm32f4xx_flash.o(.text)
    FLASH_OB_RDPConfig                       0x0801604f   Thumb Code    24  stm32f4xx_flash.o(.text)
    FLASH_OB_UserConfig                      0x08016067   Thumb Code    68  stm32f4xx_flash.o(.text)
    FLASH_OB_BORConfig                       0x080160ab   Thumb Code    22  stm32f4xx_flash.o(.text)
    FLASH_OB_Launch                          0x080160c1   Thumb Code    26  stm32f4xx_flash.o(.text)
    FLASH_OB_GetUser                         0x080160db   Thumb Code    10  stm32f4xx_flash.o(.text)
    FLASH_OB_GetWRP                          0x080160e5   Thumb Code     8  stm32f4xx_flash.o(.text)
    FLASH_OB_GetRDP                          0x080160ed   Thumb Code    20  stm32f4xx_flash.o(.text)
    FLASH_OB_GetBOR                          0x08016101   Thumb Code    10  stm32f4xx_flash.o(.text)
    FLASH_ITConfig                           0x0801610b   Thumb Code    34  stm32f4xx_flash.o(.text)
    FLASH_GetFlagStatus                      0x0801612d   Thumb Code    22  stm32f4xx_flash.o(.text)
    FLASH_ClearFlag                          0x08016143   Thumb Code     8  stm32f4xx_flash.o(.text)
    FSMC_NORSRAMDeInit                       0x08016151   Thumb Code    54  stm32f4xx_fsmc.o(.text)
    FSMC_NORSRAMInit                         0x08016187   Thumb Code   230  stm32f4xx_fsmc.o(.text)
    FSMC_NORSRAMStructInit                   0x0801626d   Thumb Code   114  stm32f4xx_fsmc.o(.text)
    FSMC_NORSRAMCmd                          0x080162df   Thumb Code    46  stm32f4xx_fsmc.o(.text)
    FSMC_NANDDeInit                          0x0801630d   Thumb Code    62  stm32f4xx_fsmc.o(.text)
    FSMC_NANDInit                            0x0801634b   Thumb Code   132  stm32f4xx_fsmc.o(.text)
    FSMC_NANDStructInit                      0x080163cf   Thumb Code    54  stm32f4xx_fsmc.o(.text)
    FSMC_NANDCmd                             0x08016405   Thumb Code    86  stm32f4xx_fsmc.o(.text)
    FSMC_NANDECCCmd                          0x0801645b   Thumb Code    86  stm32f4xx_fsmc.o(.text)
    FSMC_GetECC                              0x080164b1   Thumb Code    24  stm32f4xx_fsmc.o(.text)
    FSMC_PCCARDDeInit                        0x080164c9   Thumb Code    36  stm32f4xx_fsmc.o(.text)
    FSMC_PCCARDInit                          0x080164ed   Thumb Code   130  stm32f4xx_fsmc.o(.text)
    FSMC_PCCARDStructInit                    0x0801656f   Thumb Code    60  stm32f4xx_fsmc.o(.text)
    FSMC_PCCARDCmd                           0x080165ab   Thumb Code    44  stm32f4xx_fsmc.o(.text)
    FSMC_ITConfig                            0x080165d7   Thumb Code   128  stm32f4xx_fsmc.o(.text)
    FSMC_GetFlagStatus                       0x08016657   Thumb Code    54  stm32f4xx_fsmc.o(.text)
    FSMC_ClearFlag                           0x0801668d   Thumb Code    62  stm32f4xx_fsmc.o(.text)
    FSMC_GetITStatus                         0x080166cb   Thumb Code    72  stm32f4xx_fsmc.o(.text)
    FSMC_ClearITPendingBit                   0x08016713   Thumb Code    66  stm32f4xx_fsmc.o(.text)
    GPIO_DeInit                              0x08016759   Thumb Code   220  stm32f4xx_gpio.o(.text)
    GPIO_Init                                0x08016835   Thumb Code   144  stm32f4xx_gpio.o(.text)
    GPIO_StructInit                          0x080168c5   Thumb Code    18  stm32f4xx_gpio.o(.text)
    GPIO_PinLockConfig                       0x080168d7   Thumb Code    34  stm32f4xx_gpio.o(.text)
    GPIO_ReadInputDataBit                    0x080168f9   Thumb Code    18  stm32f4xx_gpio.o(.text)
    GPIO_ReadInputData                       0x0801690b   Thumb Code     8  stm32f4xx_gpio.o(.text)
    GPIO_ReadOutputDataBit                   0x08016913   Thumb Code    18  stm32f4xx_gpio.o(.text)
    GPIO_ReadOutputData                      0x08016925   Thumb Code     8  stm32f4xx_gpio.o(.text)
    GPIO_SetBits                             0x0801692d   Thumb Code     4  stm32f4xx_gpio.o(.text)
    GPIO_ResetBits                           0x08016931   Thumb Code     4  stm32f4xx_gpio.o(.text)
    GPIO_WriteBit                            0x08016935   Thumb Code    10  stm32f4xx_gpio.o(.text)
    GPIO_Write                               0x0801693f   Thumb Code     4  stm32f4xx_gpio.o(.text)
    GPIO_ToggleBits                          0x08016943   Thumb Code     8  stm32f4xx_gpio.o(.text)
    GPIO_PinAFConfig                         0x0801694b   Thumb Code    70  stm32f4xx_gpio.o(.text)
    RCC_DeInit                               0x080169b5   Thumb Code    60  stm32f4xx_rcc.o(.text)
    RCC_HSEConfig                            0x080169f1   Thumb Code    14  stm32f4xx_rcc.o(.text)
    RCC_GetFlagStatus                        0x080169ff   Thumb Code    60  stm32f4xx_rcc.o(.text)
    RCC_WaitForHSEStartUp                    0x08016a3b   Thumb Code    56  stm32f4xx_rcc.o(.text)
    RCC_AdjustHSICalibrationValue            0x08016a73   Thumb Code    20  stm32f4xx_rcc.o(.text)
    RCC_HSICmd                               0x08016a87   Thumb Code     6  stm32f4xx_rcc.o(.text)
    RCC_LSEConfig                            0x08016a8d   Thumb Code    46  stm32f4xx_rcc.o(.text)
    RCC_LSICmd                               0x08016abb   Thumb Code     6  stm32f4xx_rcc.o(.text)
    RCC_PLLConfig                            0x08016ac1   Thumb Code    32  stm32f4xx_rcc.o(.text)
    RCC_PLLCmd                               0x08016ae1   Thumb Code     6  stm32f4xx_rcc.o(.text)
    RCC_PLLI2SConfig                         0x08016ae7   Thumb Code    14  stm32f4xx_rcc.o(.text)
    RCC_PLLI2SCmd                            0x08016af5   Thumb Code     6  stm32f4xx_rcc.o(.text)
    RCC_ClockSecuritySystemCmd               0x08016afb   Thumb Code     6  stm32f4xx_rcc.o(.text)
    RCC_MCO1Config                           0x08016b01   Thumb Code    28  stm32f4xx_rcc.o(.text)
    RCC_MCO2Config                           0x08016b1d   Thumb Code    28  stm32f4xx_rcc.o(.text)
    RCC_SYSCLKConfig                         0x08016b39   Thumb Code    20  stm32f4xx_rcc.o(.text)
    RCC_GetSYSCLKSource                      0x08016b4d   Thumb Code    12  stm32f4xx_rcc.o(.text)
    RCC_HCLKConfig                           0x08016b59   Thumb Code    20  stm32f4xx_rcc.o(.text)
    RCC_PCLK1Config                          0x08016b6d   Thumb Code    20  stm32f4xx_rcc.o(.text)
    RCC_PCLK2Config                          0x08016b81   Thumb Code    22  stm32f4xx_rcc.o(.text)
    RCC_GetClocksFreq                        0x08016b97   Thumb Code   222  stm32f4xx_rcc.o(.text)
    RCC_RTCCLKConfig                         0x08016c75   Thumb Code    54  stm32f4xx_rcc.o(.text)
    RCC_RTCCLKCmd                            0x08016cab   Thumb Code     8  stm32f4xx_rcc.o(.text)
    RCC_BackupResetCmd                       0x08016cb3   Thumb Code     8  stm32f4xx_rcc.o(.text)
    RCC_I2SCLKConfig                         0x08016cbb   Thumb Code     6  stm32f4xx_rcc.o(.text)
    RCC_AHB1PeriphClockCmd                   0x08016cc1   Thumb Code    34  stm32f4xx_rcc.o(.text)
    RCC_AHB2PeriphClockCmd                   0x08016ce3   Thumb Code    34  stm32f4xx_rcc.o(.text)
    RCC_AHB3PeriphClockCmd                   0x08016d05   Thumb Code    34  stm32f4xx_rcc.o(.text)
    RCC_APB1PeriphClockCmd                   0x08016d27   Thumb Code    34  stm32f4xx_rcc.o(.text)
    RCC_APB2PeriphClockCmd                   0x08016d49   Thumb Code    34  stm32f4xx_rcc.o(.text)
    RCC_AHB1PeriphResetCmd                   0x08016d6b   Thumb Code    34  stm32f4xx_rcc.o(.text)
    RCC_AHB2PeriphResetCmd                   0x08016d8d   Thumb Code    72  stm32f4xx_rcc.o(.text)
    RCC_AHB3PeriphResetCmd                   0x08016dd5   Thumb Code    34  stm32f4xx_rcc.o(.text)
    RCC_APB1PeriphResetCmd                   0x08016df7   Thumb Code    34  stm32f4xx_rcc.o(.text)
    RCC_APB2PeriphResetCmd                   0x08016e19   Thumb Code    34  stm32f4xx_rcc.o(.text)
    RCC_AHB1PeriphClockLPModeCmd             0x08016e3b   Thumb Code    34  stm32f4xx_rcc.o(.text)
    RCC_AHB2PeriphClockLPModeCmd             0x08016e5d   Thumb Code    34  stm32f4xx_rcc.o(.text)
    RCC_AHB3PeriphClockLPModeCmd             0x08016e7f   Thumb Code    34  stm32f4xx_rcc.o(.text)
    RCC_APB1PeriphClockLPModeCmd             0x08016ea1   Thumb Code    34  stm32f4xx_rcc.o(.text)
    RCC_APB2PeriphClockLPModeCmd             0x08016ec3   Thumb Code    34  stm32f4xx_rcc.o(.text)
    RCC_ITConfig                             0x08016ee5   Thumb Code    34  stm32f4xx_rcc.o(.text)
    RCC_ClearFlag                            0x08016f07   Thumb Code    18  stm32f4xx_rcc.o(.text)
    RCC_GetITStatus                          0x08016f19   Thumb Code    22  stm32f4xx_rcc.o(.text)
    RCC_ClearITPendingBit                    0x08016f2f   Thumb Code     8  stm32f4xx_rcc.o(.text)
    SYSCFG_DeInit                            0x08016f3d   Thumb Code    22  stm32f4xx_syscfg.o(.text)
    SYSCFG_MemoryRemapConfig                 0x08016f53   Thumb Code     6  stm32f4xx_syscfg.o(.text)
    SYSCFG_EXTILineConfig                    0x08016f59   Thumb Code    66  stm32f4xx_syscfg.o(.text)
    SYSCFG_ETH_MediaInterfaceConfig          0x08016f9b   Thumb Code     6  stm32f4xx_syscfg.o(.text)
    SYSCFG_CompensationCellCmd               0x08016fa1   Thumb Code     6  stm32f4xx_syscfg.o(.text)
    SYSCFG_GetCompensationCellStatus         0x08016fa7   Thumb Code    22  stm32f4xx_syscfg.o(.text)
    TIM_DeInit                               0x08016fc9   Thumb Code   346  stm32f4xx_tim.o(.text)
    TIM_TimeBaseInit                         0x08017123   Thumb Code   104  stm32f4xx_tim.o(.text)
    TIM_TimeBaseStructInit                   0x0801718b   Thumb Code    18  stm32f4xx_tim.o(.text)
    TIM_PrescalerConfig                      0x0801719d   Thumb Code     6  stm32f4xx_tim.o(.text)
    TIM_CounterModeConfig                    0x080171a3   Thumb Code    18  stm32f4xx_tim.o(.text)
    TIM_SetCounter                           0x080171b5   Thumb Code     4  stm32f4xx_tim.o(.text)
    TIM_SetAutoreload                        0x080171b9   Thumb Code     4  stm32f4xx_tim.o(.text)
    TIM_GetCounter                           0x080171bd   Thumb Code     6  stm32f4xx_tim.o(.text)
    TIM_GetPrescaler                         0x080171c3   Thumb Code     6  stm32f4xx_tim.o(.text)
    TIM_UpdateDisableConfig                  0x080171c9   Thumb Code    24  stm32f4xx_tim.o(.text)
    TIM_UpdateRequestConfig                  0x080171e1   Thumb Code    24  stm32f4xx_tim.o(.text)
    TIM_ARRPreloadConfig                     0x080171f9   Thumb Code    24  stm32f4xx_tim.o(.text)
    TIM_SelectOnePulseMode                   0x08017211   Thumb Code    18  stm32f4xx_tim.o(.text)
    TIM_SetClockDivision                     0x08017223   Thumb Code    18  stm32f4xx_tim.o(.text)
    TIM_Cmd                                  0x08017235   Thumb Code    24  stm32f4xx_tim.o(.text)
    TIM_OC1Init                              0x0801724d   Thumb Code   114  stm32f4xx_tim.o(.text)
    TIM_OC2Init                              0x080172bf   Thumb Code   154  stm32f4xx_tim.o(.text)
    TIM_OC3Init                              0x08017359   Thumb Code   204  stm32f4xx_tim.o(.text)
    TIM_OC4Init                              0x08017425   Thumb Code   112  stm32f4xx_tim.o(.text)
    TIM_OCStructInit                         0x08017495   Thumb Code    20  stm32f4xx_tim.o(.text)
    TIM_SelectOCxM                           0x080174a9   Thumb Code    86  stm32f4xx_tim.o(.text)
    TIM_SetCompare1                          0x080174ff   Thumb Code     4  stm32f4xx_tim.o(.text)
    TIM_SetCompare2                          0x08017503   Thumb Code     4  stm32f4xx_tim.o(.text)
    TIM_SetCompare3                          0x08017507   Thumb Code     4  stm32f4xx_tim.o(.text)
    TIM_SetCompare4                          0x0801750b   Thumb Code     4  stm32f4xx_tim.o(.text)
    TIM_ForcedOC1Config                      0x0801750f   Thumb Code    18  stm32f4xx_tim.o(.text)
    TIM_ForcedOC2Config                      0x08017521   Thumb Code    26  stm32f4xx_tim.o(.text)
    TIM_ForcedOC3Config                      0x0801753b   Thumb Code    18  stm32f4xx_tim.o(.text)
    TIM_ForcedOC4Config                      0x0801754d   Thumb Code    26  stm32f4xx_tim.o(.text)
    TIM_OC1PreloadConfig                     0x08017567   Thumb Code    18  stm32f4xx_tim.o(.text)
    TIM_OC2PreloadConfig                     0x08017579   Thumb Code    26  stm32f4xx_tim.o(.text)
    TIM_OC3PreloadConfig                     0x08017593   Thumb Code    18  stm32f4xx_tim.o(.text)
    TIM_OC4PreloadConfig                     0x080175a5   Thumb Code    26  stm32f4xx_tim.o(.text)
    TIM_OC1FastConfig                        0x080175bf   Thumb Code    18  stm32f4xx_tim.o(.text)
    TIM_OC2FastConfig                        0x080175d1   Thumb Code    26  stm32f4xx_tim.o(.text)
    TIM_OC3FastConfig                        0x080175eb   Thumb Code    18  stm32f4xx_tim.o(.text)
    TIM_OC4FastConfig                        0x080175fd   Thumb Code    26  stm32f4xx_tim.o(.text)
    TIM_ClearOC1Ref                          0x08017617   Thumb Code    18  stm32f4xx_tim.o(.text)
    TIM_ClearOC2Ref                          0x08017629   Thumb Code    24  stm32f4xx_tim.o(.text)
    TIM_ClearOC3Ref                          0x08017641   Thumb Code    18  stm32f4xx_tim.o(.text)
    TIM_ClearOC4Ref                          0x08017653   Thumb Code    24  stm32f4xx_tim.o(.text)
    TIM_OC1PolarityConfig                    0x0801766b   Thumb Code    18  stm32f4xx_tim.o(.text)
    TIM_OC1NPolarityConfig                   0x0801767d   Thumb Code    18  stm32f4xx_tim.o(.text)
    TIM_OC2PolarityConfig                    0x0801768f   Thumb Code    26  stm32f4xx_tim.o(.text)
    TIM_OC2NPolarityConfig                   0x080176a9   Thumb Code    26  stm32f4xx_tim.o(.text)
    TIM_OC3PolarityConfig                    0x080176c3   Thumb Code    26  stm32f4xx_tim.o(.text)
    TIM_OC3NPolarityConfig                   0x080176dd   Thumb Code    26  stm32f4xx_tim.o(.text)
    TIM_OC4PolarityConfig                    0x080176f7   Thumb Code    26  stm32f4xx_tim.o(.text)
    TIM_CCxCmd                               0x08017711   Thumb Code    30  stm32f4xx_tim.o(.text)
    TIM_CCxNCmd                              0x0801772f   Thumb Code    30  stm32f4xx_tim.o(.text)
    TIM_SetIC4Prescaler                      0x0801774d   Thumb Code    26  stm32f4xx_tim.o(.text)
    TIM_SetIC3Prescaler                      0x080177b7   Thumb Code    18  stm32f4xx_tim.o(.text)
    TIM_SetIC2Prescaler                      0x08017811   Thumb Code    26  stm32f4xx_tim.o(.text)
    TIM_SetIC1Prescaler                      0x08017885   Thumb Code    18  stm32f4xx_tim.o(.text)
    TIM_ICInit                               0x080178d1   Thumb Code   110  stm32f4xx_tim.o(.text)
    TIM_ICStructInit                         0x0801793f   Thumb Code    18  stm32f4xx_tim.o(.text)
    TIM_PWMIConfig                           0x08017951   Thumb Code   124  stm32f4xx_tim.o(.text)
    TIM_GetCapture1                          0x080179cd   Thumb Code     6  stm32f4xx_tim.o(.text)
    TIM_GetCapture2                          0x080179d3   Thumb Code     6  stm32f4xx_tim.o(.text)
    TIM_GetCapture3                          0x080179d9   Thumb Code     6  stm32f4xx_tim.o(.text)
    TIM_GetCapture4                          0x080179df   Thumb Code     6  stm32f4xx_tim.o(.text)
    TIM_BDTRConfig                           0x080179e5   Thumb Code    32  stm32f4xx_tim.o(.text)
    TIM_BDTRStructInit                       0x08017a05   Thumb Code    18  stm32f4xx_tim.o(.text)
    TIM_CtrlPWMOutputs                       0x08017a17   Thumb Code    30  stm32f4xx_tim.o(.text)
    TIM_SelectCOM                            0x08017a35   Thumb Code    24  stm32f4xx_tim.o(.text)
    TIM_CCPreloadControl                     0x08017a4d   Thumb Code    24  stm32f4xx_tim.o(.text)
    TIM_ITConfig                             0x08017a65   Thumb Code    18  stm32f4xx_tim.o(.text)
    TIM_GenerateEvent                        0x08017a77   Thumb Code     4  stm32f4xx_tim.o(.text)
    TIM_GetFlagStatus                        0x08017a7b   Thumb Code    18  stm32f4xx_tim.o(.text)
    TIM_ClearFlag                            0x08017a8d   Thumb Code     6  stm32f4xx_tim.o(.text)
    TIM_GetITStatus                          0x08017a93   Thumb Code    34  stm32f4xx_tim.o(.text)
    TIM_ClearITPendingBit                    0x08017ab5   Thumb Code     6  stm32f4xx_tim.o(.text)
    TIM_DMAConfig                            0x08017abb   Thumb Code    10  stm32f4xx_tim.o(.text)
    TIM_DMACmd                               0x08017ac5   Thumb Code    18  stm32f4xx_tim.o(.text)
    TIM_SelectCCDMA                          0x08017ad7   Thumb Code    24  stm32f4xx_tim.o(.text)
    TIM_InternalClockConfig                  0x08017aef   Thumb Code    12  stm32f4xx_tim.o(.text)
    TIM_SelectInputTrigger                   0x08017afb   Thumb Code    18  stm32f4xx_tim.o(.text)
    TIM_ITRxExternalClockConfig              0x08017b0d   Thumb Code    24  stm32f4xx_tim.o(.text)
    TIM_TIxExternalClockConfig               0x08017b25   Thumb Code    62  stm32f4xx_tim.o(.text)
    TIM_ETRConfig                            0x08017b63   Thumb Code    28  stm32f4xx_tim.o(.text)
    TIM_ETRClockMode1Config                  0x08017b7f   Thumb Code    54  stm32f4xx_tim.o(.text)
    TIM_ETRClockMode2Config                  0x08017bb5   Thumb Code    32  stm32f4xx_tim.o(.text)
    TIM_SelectOutputTrigger                  0x08017bd5   Thumb Code    18  stm32f4xx_tim.o(.text)
    TIM_SelectSlaveMode                      0x08017be7   Thumb Code    18  stm32f4xx_tim.o(.text)
    TIM_SelectMasterSlaveMode                0x08017bf9   Thumb Code    18  stm32f4xx_tim.o(.text)
    TIM_EncoderInterfaceConfig               0x08017c0b   Thumb Code    66  stm32f4xx_tim.o(.text)
    TIM_SelectHallSensor                     0x08017c4d   Thumb Code    24  stm32f4xx_tim.o(.text)
    TIM_RemapConfig                          0x08017c65   Thumb Code     6  stm32f4xx_tim.o(.text)
    USART_DeInit                             0x08017c6d   Thumb Code   156  stm32f4xx_usart.o(.text)
    USART_Init                               0x08017d09   Thumb Code   204  stm32f4xx_usart.o(.text)
    USART_StructInit                         0x08017dd5   Thumb Code    24  stm32f4xx_usart.o(.text)
    USART_ClockInit                          0x08017ded   Thumb Code    32  stm32f4xx_usart.o(.text)
    USART_ClockStructInit                    0x08017e0d   Thumb Code    12  stm32f4xx_usart.o(.text)
    USART_Cmd                                0x08017e19   Thumb Code    24  stm32f4xx_usart.o(.text)
    USART_SetPrescaler                       0x08017e31   Thumb Code    16  stm32f4xx_usart.o(.text)
    USART_OverSampling8Cmd                   0x08017e41   Thumb Code    22  stm32f4xx_usart.o(.text)
    USART_OneBitMethodCmd                    0x08017e57   Thumb Code    24  stm32f4xx_usart.o(.text)
    USART_GetFlagStatus                      0x08017e6f   Thumb Code    26  stm32f4xx_usart.o(.text)
    USART_SendData                           0x08017e89   Thumb Code    28  stm32f4xx_usart.o(.text)
    USART_ReceiveData                        0x08017ea5   Thumb Code    10  stm32f4xx_usart.o(.text)
    USART_SetAddress                         0x08017eaf   Thumb Code    18  stm32f4xx_usart.o(.text)
    USART_ReceiverWakeUpCmd                  0x08017ec1   Thumb Code    24  stm32f4xx_usart.o(.text)
    USART_WakeUpConfig                       0x08017ed9   Thumb Code    18  stm32f4xx_usart.o(.text)
    USART_LINBreakDetectLengthConfig         0x08017eeb   Thumb Code    18  stm32f4xx_usart.o(.text)
    USART_LINCmd                             0x08017efd   Thumb Code    24  stm32f4xx_usart.o(.text)
    USART_SendBreak                          0x08017f15   Thumb Code    10  stm32f4xx_usart.o(.text)
    USART_HalfDuplexCmd                      0x08017f1f   Thumb Code    24  stm32f4xx_usart.o(.text)
    USART_SetGuardTime                       0x08017f37   Thumb Code    16  stm32f4xx_usart.o(.text)
    USART_SmartCardCmd                       0x08017f47   Thumb Code    24  stm32f4xx_usart.o(.text)
    USART_SmartCardNACKCmd                   0x08017f5f   Thumb Code    24  stm32f4xx_usart.o(.text)
    USART_IrDAConfig                         0x08017f77   Thumb Code    18  stm32f4xx_usart.o(.text)
    USART_IrDACmd                            0x08017f89   Thumb Code    24  stm32f4xx_usart.o(.text)
    USART_DMACmd                             0x08017fa1   Thumb Code    18  stm32f4xx_usart.o(.text)
    USART_ITConfig                           0x08017fb3   Thumb Code    74  stm32f4xx_usart.o(.text)
    USART_ClearFlag                          0x08017ffd   Thumb Code    18  stm32f4xx_usart.o(.text)
    USART_GetITStatus                        0x0801800f   Thumb Code   110  stm32f4xx_usart.o(.text)
    USART_ClearITPendingBit                  0x0801807d   Thumb Code    30  stm32f4xx_usart.o(.text)
    SystemInit                               0x08018179   Thumb Code    88  system_stm32f4xx.o(.text)
    SystemCoreClockUpdate                    0x080181d1   Thumb Code   174  system_stm32f4xx.o(.text)
    __use_no_semihosting                     0x080182ad   Thumb Code     2  use_no_semi_2.o(.text)
    __use_two_region_memory                  0x080182af   Thumb Code     2  heapauxi.o(.text)
    __rt_heap_escrow$2region                 0x080182b1   Thumb Code     2  heapauxi.o(.text)
    __rt_heap_expand$2region                 0x080182b3   Thumb Code     2  heapauxi.o(.text)
    __I$use$semihosting                      0x080182b5   Thumb Code     0  use_no_semi.o(.text)
    __use_no_semihosting_swi                 0x080182b5   Thumb Code     2  use_no_semi.o(.text)
    __read_errno                             0x080182b7   Thumb Code    10  _rserrno.o(.text)
    __set_errno                              0x080182c1   Thumb Code    12  _rserrno.o(.text)
    __aeabi_errno_addr                       0x080182cd   Thumb Code     8  rt_errno_addr_intlibspace.o(.text)
    __errno$intlibspace                      0x080182cd   Thumb Code     0  rt_errno_addr_intlibspace.o(.text)
    __rt_errno_addr$intlibspace              0x080182cd   Thumb Code     0  rt_errno_addr_intlibspace.o(.text)
    __user_libspace                          0x080182d5   Thumb Code     8  libspace.o(.text)
    __user_perproc_libspace                  0x080182d5   Thumb Code     0  libspace.o(.text)
    __user_perthread_libspace                0x080182d5   Thumb Code     0  libspace.o(.text)
    __user_setup_stackheap                   0x080182dd   Thumb Code    74  sys_stackheap_outer.o(.text)
    exit                                     0x08018327   Thumb Code    18  exit.o(.text)
    __ARM_fpclassify                         0x08018339   Thumb Code    48  fpclassify.o(i.__ARM_fpclassify)
    __ARM_fpclassifyf                        0x08018369   Thumb Code    38  fpclassifyf.o(i.__ARM_fpclassifyf)
    __hardfp_acosf                           0x08018391   Thumb Code   234  acosf.o(i.__hardfp_acosf)
    __hardfp_asinf                           0x080184a9   Thumb Code   258  asinf.o(i.__hardfp_asinf)
    __hardfp_cos                             0x080185d9   Thumb Code   180  cos.o(i.__hardfp_cos)
    __hardfp_fabs                            0x080186a1   Thumb Code    20  fabs.o(i.__hardfp_fabs)
    __hardfp_sin                             0x080186b9   Thumb Code   180  sin.o(i.__hardfp_sin)
    __hardfp_sinf                            0x08018781   Thumb Code   344  sinf.o(i.__hardfp_sinf)
    __hardfp_sqrt                            0x08018911   Thumb Code   122  sqrt.o(i.__hardfp_sqrt)
    __ieee754_rem_pio2                       0x08018991   Thumb Code   938  rred.o(i.__ieee754_rem_pio2)
    __kernel_cos                             0x08018dc9   Thumb Code   322  cos_i.o(i.__kernel_cos)
    __kernel_poly                            0x08018f39   Thumb Code   248  poly.o(i.__kernel_poly)
    __kernel_sin                             0x08019031   Thumb Code   280  sin_i.o(i.__kernel_sin)
    __mathlib_dbl_infnan                     0x08019161   Thumb Code    20  dunder.o(i.__mathlib_dbl_infnan)
    __mathlib_dbl_invalid                    0x08019179   Thumb Code    24  dunder.o(i.__mathlib_dbl_invalid)
    __mathlib_dbl_underflow                  0x08019199   Thumb Code    24  dunder.o(i.__mathlib_dbl_underflow)
    __mathlib_flt_infnan                     0x080191b9   Thumb Code     6  funder.o(i.__mathlib_flt_infnan)
    __mathlib_flt_invalid                    0x080191c1   Thumb Code    10  funder.o(i.__mathlib_flt_invalid)
    __mathlib_flt_underflow                  0x080191d1   Thumb Code    10  funder.o(i.__mathlib_flt_underflow)
    __mathlib_rredf2                         0x080191e1   Thumb Code   316  rredf.o(i.__mathlib_rredf2)
    fabs                                     0x08019335   Thumb Code    24  fabs.o(i.fabs)
    sqrtf                                    0x0801934d   Thumb Code    62  sqrtf.o(i.sqrtf)
    __aeabi_dneg                             0x0801938b   Thumb Code     0  basic.o(x$fpl$basic)
    _dneg                                    0x0801938b   Thumb Code     6  basic.o(x$fpl$basic)
    __aeabi_fneg                             0x08019391   Thumb Code     0  basic.o(x$fpl$basic)
    _fneg                                    0x08019391   Thumb Code     6  basic.o(x$fpl$basic)
    _dabs                                    0x08019397   Thumb Code     6  basic.o(x$fpl$basic)
    _fabs                                    0x0801939d   Thumb Code     6  basic.o(x$fpl$basic)
    __aeabi_d2f                              0x080193a5   Thumb Code     0  d2f.o(x$fpl$d2f)
    _d2f                                     0x080193a5   Thumb Code    98  d2f.o(x$fpl$d2f)
    __aeabi_dadd                             0x08019409   Thumb Code     0  daddsub_clz.o(x$fpl$dadd)
    _dadd                                    0x08019409   Thumb Code   332  daddsub_clz.o(x$fpl$dadd)
    __fpl_dcmp_Inf                           0x08019559   Thumb Code    24  dcmpi.o(x$fpl$dcmpinf)
    __aeabi_ddiv                             0x08019571   Thumb Code     0  ddiv.o(x$fpl$ddiv)
    _ddiv                                    0x08019571   Thumb Code   552  ddiv.o(x$fpl$ddiv)
    __aeabi_cdcmpeq                          0x08019821   Thumb Code     0  deqf.o(x$fpl$deqf)
    _dcmpeq                                  0x08019821   Thumb Code   120  deqf.o(x$fpl$deqf)
    __aeabi_d2iz                             0x08019899   Thumb Code     0  dfix.o(x$fpl$dfix)
    _dfix                                    0x08019899   Thumb Code    94  dfix.o(x$fpl$dfix)
    __aeabi_i2d                              0x080198f7   Thumb Code     0  dflt_clz.o(x$fpl$dflt)
    _dflt                                    0x080198f7   Thumb Code    46  dflt_clz.o(x$fpl$dflt)
    __aeabi_ui2d                             0x08019925   Thumb Code     0  dflt_clz.o(x$fpl$dfltu)
    _dfltu                                   0x08019925   Thumb Code    38  dflt_clz.o(x$fpl$dfltu)
    __aeabi_cdcmple                          0x0801994d   Thumb Code     0  dleqf.o(x$fpl$dleqf)
    _dcmple                                  0x0801994d   Thumb Code   120  dleqf.o(x$fpl$dleqf)
    __fpl_dcmple_InfNaN                      0x080199af   Thumb Code     0  dleqf.o(x$fpl$dleqf)
    __aeabi_dmul                             0x080199c5   Thumb Code     0  dmul.o(x$fpl$dmul)
    _dmul                                    0x080199c5   Thumb Code   332  dmul.o(x$fpl$dmul)
    __fpl_dnaninf                            0x08019b19   Thumb Code   156  dnaninf.o(x$fpl$dnaninf)
    __fpl_dretinf                            0x08019bb5   Thumb Code    12  dretinf.o(x$fpl$dretinf)
    __aeabi_cdrcmple                         0x08019bc1   Thumb Code     0  drleqf.o(x$fpl$drleqf)
    _drcmple                                 0x08019bc1   Thumb Code   108  drleqf.o(x$fpl$drleqf)
    __aeabi_drsub                            0x08019c2d   Thumb Code     0  daddsub_clz.o(x$fpl$drsb)
    _drsb                                    0x08019c2d   Thumb Code    22  daddsub_clz.o(x$fpl$drsb)
    _dsqrt                                   0x08019c45   Thumb Code   404  dsqrt_umaal.o(x$fpl$dsqrt)
    __aeabi_dsub                             0x08019ddd   Thumb Code     0  daddsub_clz.o(x$fpl$dsub)
    _dsub                                    0x08019ddd   Thumb Code   464  daddsub_clz.o(x$fpl$dsub)
    __aeabi_f2d                              0x08019fb1   Thumb Code     0  f2d.o(x$fpl$f2d)
    _f2d                                     0x08019fb1   Thumb Code    86  f2d.o(x$fpl$f2d)
    __fpl_fnaninf                            0x0801a007   Thumb Code   140  fnaninf.o(x$fpl$fnaninf)
    _fp_init                                 0x0801a093   Thumb Code    10  fpinit.o(x$fpl$fpinit)
    __fplib_config_fpu_vfp                   0x0801a09b   Thumb Code     0  fpinit.o(x$fpl$fpinit)
    __fplib_config_pureend_doubles           0x0801a09b   Thumb Code     0  fpinit.o(x$fpl$fpinit)
    __fpl_fretinf                            0x0801a09d   Thumb Code    10  fretinf.o(x$fpl$fretinf)
    __I$use$fp                               0x0801a0a6   Number         0  usenofp.o(x$fpl$usenofp)
    Region$$Table$$Base                      0x0801a1e8   Number         0  anon$$obj.o(Region$$Table)
    Region$$Table$$Limit                     0x0801a208   Number         0  anon$$obj.o(Region$$Table)
    AB_i                                     0x20000000   Data           1  aaa.o(.data)
    AB_TX_Len                                0x20000001   Data           1  aaa.o(.data)
    Temp_Data                                0x20000004   Data           4  aaa.o(.data)
    TX_Coarse_Azimuth                        0x20000008   Data           4  aaa.o(.data)
    TX_Coarse_Pitch                          0x2000000c   Data           4  aaa.o(.data)
    TX_Precise_Azimuth                       0x20000010   Data           4  aaa.o(.data)
    TX_Precise_Pitch                         0x20000014   Data           4  aaa.o(.data)
    RX_Coarse_Azimuth                        0x20000018   Data           4  aaa.o(.data)
    RX_Coarse_Pitch                          0x2000001c   Data           4  aaa.o(.data)
    RX_Precise_Azimuth                       0x20000020   Data           4  aaa.o(.data)
    RX_Precise_Pitch                         0x20000024   Data           4  aaa.o(.data)
    FW_Miss_distance                         0x20000028   Data           4  aaa.o(.data)
    FY_Miss_distance                         0x2000002c   Data           4  aaa.o(.data)
    RX_Coarse_Azimuth1                       0x20000030   Data           4  aaa.o(.data)
    RX_Coarse_Pitch1                         0x20000034   Data           4  aaa.o(.data)
    RX_Precise_Azimuth1                      0x20000038   Data           4  aaa.o(.data)
    RX_Precise_Pitch1                        0x2000003c   Data           4  aaa.o(.data)
    TX_Ins_RollAngle                         0x20000040   Data           4  aaa.o(.data)
    TX_Ins_PitchAngle                        0x20000044   Data           4  aaa.o(.data)
    TX_Ins_Yaw                               0x20000048   Data           4  aaa.o(.data)
    TX_Ins_Attitude_FW                       0x2000004c   Data           4  aaa.o(.data)
    TX_Ins_Attitude_FY                       0x20000050   Data           4  aaa.o(.data)
    TX_Ins_Attitude_Roll                     0x20000054   Data           4  aaa.o(.data)
    TX_Ins_Speed_FW                          0x20000058   Data           4  aaa.o(.data)
    TX_Ins_Speed_FY                          0x2000005c   Data           4  aaa.o(.data)
    TX_Ins_Speed_Roll                        0x20000060   Data           4  aaa.o(.data)
    TX_Encoder_FW                            0x20000064   Data           4  aaa.o(.data)
    TX_Encoder_FY                            0x20000068   Data           4  aaa.o(.data)
    TX_Miss_FY                               0x2000006c   Data           4  aaa.o(.data)
    TX_Miss_FW                               0x20000070   Data           4  aaa.o(.data)
    TX_Fast_Reflection_Mirror_FW             0x20000074   Data           4  aaa.o(.data)
    TX_Fast_Reflection_Mirror_FY             0x20000078   Data           4  aaa.o(.data)
    FW_position                              0x2000007c   Data           4  aaa.o(.data)
    FY_position                              0x20000080   Data           4  aaa.o(.data)
    Scan_direction                           0x20000084   Data           1  aaa.o(.data)
    Scan_times                               0x20000085   Data           1  aaa.o(.data)
    Scan_FW_Angle                            0x20000086   Data           1  aaa.o(.data)
    Scan_FY_Angle                            0x20000087   Data           1  aaa.o(.data)
    Scan_FW_Start_Angle                      0x20000088   Data           1  aaa.o(.data)
    Scan_FY_Start_Angle                      0x20000089   Data           1  aaa.o(.data)
    FW_Scan_Step                             0x2000008a   Data           2  aaa.o(.data)
    FY_Scan_Step                             0x2000008c   Data           2  aaa.o(.data)
    FW_Scan_Step_Float                       0x20000090   Data           4  aaa.o(.data)
    FY_Scan_Step_Float                       0x20000094   Data           4  aaa.o(.data)
    Scan_Speed                               0x20000098   Data           1  aaa.o(.data)
    RX_Servo_Steady_State                    0x20000099   Data           1  aaa.o(.data)
    TX_Servo_Steady_State                    0x2000009a   Data           1  aaa.o(.data)
    TX_Coarse_State                          0x2000009b   Data           1  aaa.o(.data)
    TX_Precise_State                         0x2000009c   Data           1  aaa.o(.data)
    Point_Mode                               0x2000009d   Data           1  aaa.o(.data)
    Step_T                                   0x2000009e   Data           2  aaa.o(.data)
    FW_Step_Angle                            0x200000a0   Data           2  aaa.o(.data)
    FY_Step_Angle                            0x200000a2   Data           2  aaa.o(.data)
    Stable_T                                 0x200000a4   Data           4  aaa.o(.data)
    FW_Angle_MAX1                            0x200000a8   Data           1  aaa.o(.data)
    FY_Angle_MAX1                            0x200000a9   Data           1  aaa.o(.data)
    FW_Angle_MAX2                            0x200000aa   Data           2  aaa.o(.data)
    FY_Angle_MAX2                            0x200000ac   Data           2  aaa.o(.data)
    Primary_Mirror_Work_Mode                 0x200000ae   Data           1  aaa.o(.data)
    Fast_Mirror_Work_Mode                    0x200000af   Data           1  aaa.o(.data)
    AA_Time                                  0x200000b0   Data           4  aaa.o(.data)
    AA_Flage                                 0x200000b4   Data           1  aaa.o(.data)
    AA_i                                     0x200000b5   Data           1  aaa.o(.data)
    AA_frame                                 0x200000b6   Data           1  aaa.o(.data)
    AA_TX_Len                                0x200000b7   Data           1  aaa.o(.data)
    AA_RX_Len                                0x200000b8   Data           1  aaa.o(.data)
    AA_ADDR_tmp                              0x200000bc   Data           4  aaa.o(.data)
    AA_Err                                   0x200000c0   Data           1  aaa.o(.data)
    AA_fail                                  0x200000c1   Data           1  aaa.o(.data)
    CommandNew                               0x200000c2   Data           1  aaa.o(.data)
    CommandOld                               0x200000c3   Data           1  aaa.o(.data)
    CO_ID                                    0x200000c4   Data           1  aaa.o(.data)
    ST_ID                                    0x200000c5   Data           1  aaa.o(.data)
    Work_Mode                                0x200000c6   Data           1  aaa.o(.data)
    Time_T                                   0x200000c7   Data           1  aaa.o(.data)
    Time_M                                   0x200000c8   Data           1  aaa.o(.data)
    Time_S                                   0x200000c9   Data           1  aaa.o(.data)
    Time_mS_H                                0x200000ca   Data           1  aaa.o(.data)
    Time_mS_L                                0x200000cb   Data           1  aaa.o(.data)
    SYS_Time_T                               0x200000cc   Data           1  aaa.o(.data)
    SYS_Time_M                               0x200000cd   Data           1  aaa.o(.data)
    SYS_Time_S                               0x200000ce   Data           1  aaa.o(.data)
    SYS_Time_mS_H                            0x200000cf   Data           1  aaa.o(.data)
    SYS_Time_mS_L                            0x200000d0   Data           1  aaa.o(.data)
    Driver_Set1                              0x200000d1   Data           1  aaa.o(.data)
    Driver_Set2                              0x200000d2   Data           1  aaa.o(.data)
    Driver_Set3                              0x200000d3   Data           1  aaa.o(.data)
    Driver_Set4                              0x200000d4   Data           1  aaa.o(.data)
    Driver_Set5                              0x200000d5   Data           1  aaa.o(.data)
    Driver_Set6                              0x200000d6   Data           1  aaa.o(.data)
    Driver_Set_Mode                          0x200000d7   Data           1  aaa.o(.data)
    Work_Mode_Old                            0x200000d8   Data           1  aaa.o(.data)
    Clearn_flag                              0x200000d9   Data           1  aaa.o(.data)
    guandao_yaw_select                       0x200000da   Data           1  aaa.o(.data)
    guandao_pitch_select                     0x200000db   Data           1  aaa.o(.data)
    guandao_roll_select                      0x200000dc   Data           1  aaa.o(.data)
    SYS_Time                                 0x200000e0   Data           4  aaa.o(.data)
    Time                                     0x200000e4   Data           4  aaa.o(.data)
    FW_Huiling_last                          0x200000e8   Data           4  aaa.o(.data)
    FY_Huiling_last                          0x200000ec   Data           4  aaa.o(.data)
    Sum_Data                                 0x200000f0   Data           2  aaa.o(.data)
    HeJiaoYan                                0x200000f2   Data           2  aaa.o(.data)
    Read_JiaoYan_Flag                        0x200000f4   Data           4  aaa.o(.data)
    ZhenJiShu                                0x200000f8   Data           2  aaa.o(.data)
    ZhenJiShu_GaoWei                         0x200000fa   Data           2  aaa.o(.data)
    Sum_Send_Data                            0x200000fc   Data           2  aaa.o(.data)
    Sun_Send_Data_GaoWei                     0x200000fe   Data           2  aaa.o(.data)
    DianLiu_2                                0x20000100   Data           1  aaa.o(.data)
    DianLiu_1                                0x20000101   Data           1  aaa.o(.data)
    Send_Flag                                0x20000104   Data           4  aaa.o(.data)
    Scan_FangShi                             0x20000108   Data           1  aaa.o(.data)
    bbb                                      0x2000010c   Data           4  aaa.o(.data)
    Recevie                                  0x20000110   Data           4  aaa.o(.data)
    QIUhe_CNT                                0x20000114   Data           4  aaa.o(.data)
    Scan_Speed_Degree_s                      0x20000118   Data           4  aaa.o(.data)
    AB_CNT                                   0x2000011c   Data           1  aaa.o(.data)
    QieHuan_flag                             0x2000011d   Data           1  aaa.o(.data)
    ly_zhenpin                               0x2000011e   Data           1  aaa.o(.data)
    zhenpin_CNT1                             0x20000120   Data           4  aaa.o(.data)
    zhenpin_CNT2                             0x20000124   Data           4  aaa.o(.data)
    tx_cnt                                   0x20000128   Data           4  aaa.o(.data)
    ab_tx_cnt                                0x2000012c   Data           4  aaa.o(.data)
    ab_f                                     0x20000130   Data           4  aaa.o(.data)
    CJ_Time                                  0x20000134   Data           1  aaa.o(.data)
    UTS_Time                                 0x20000138   Data           4  aaa.o(.data)
    UTS_Time1                                0x2000013c   Data           4  aaa.o(.data)
    HH                                       0x20000140   Data           2  aaa.o(.data)
    MM                                       0x20000142   Data           2  aaa.o(.data)
    SS                                       0x20000144   Data           2  aaa.o(.data)
    sss                                      0x20000146   Data           2  aaa.o(.data)
    Lattitude_int                            0x20000148   Data           4  aaa.o(.data)
    Longitude_int                            0x2000014c   Data           4  aaa.o(.data)
    Altitude_int                             0x20000150   Data           4  aaa.o(.data)
    Lattitude_f                              0x20000154   Data           4  aaa.o(.data)
    Longitude_f                              0x20000158   Data           4  aaa.o(.data)
    Altitude_f                               0x2000015c   Data           4  aaa.o(.data)
    Yaw                                      0x20000160   Data           2  aaa.o(.data)
    Pitch                                    0x20000162   Data           2  aaa.o(.data)
    Roll                                     0x20000164   Data           2  aaa.o(.data)
    Yaw_f                                    0x20000168   Data           4  aaa.o(.data)
    Pitch_f                                  0x2000016c   Data           4  aaa.o(.data)
    Roll_f                                   0x20000170   Data           4  aaa.o(.data)
    N_V                                      0x20000174   Data           2  aaa.o(.data)
    E_V                                      0x20000176   Data           2  aaa.o(.data)
    SKEY_V                                   0x20000178   Data           2  aaa.o(.data)
    X_Palstance                              0x2000017a   Data           2  aaa.o(.data)
    Y_Palstance                              0x2000017c   Data           2  aaa.o(.data)
    Z_Palstance                              0x2000017e   Data           2  aaa.o(.data)
    X_Acceleration                           0x20000180   Data           2  aaa.o(.data)
    Y_Acceleration                           0x20000182   Data           2  aaa.o(.data)
    Z_Acceleration                           0x20000184   Data           2  aaa.o(.data)
    N_V_f                                    0x20000188   Data           4  aaa.o(.data)
    E_V_f                                    0x2000018c   Data           4  aaa.o(.data)
    SKEY_V_f                                 0x20000190   Data           4  aaa.o(.data)
    X_Palstance_f                            0x20000194   Data           4  aaa.o(.data)
    Y_Palstance_f                            0x20000198   Data           4  aaa.o(.data)
    Z_Palstance_f                            0x2000019c   Data           4  aaa.o(.data)
    X_Acceleration_f                         0x200001a0   Data           4  aaa.o(.data)
    Y_Acceleration_f                         0x200001a4   Data           4  aaa.o(.data)
    Z_Acceleration_f                         0x200001a8   Data           4  aaa.o(.data)
    Status                                   0x200001ac   Data           2  aaa.o(.data)
    ab_rx_cnt                                0x200001b0   Data           4  aaa.o(.data)
    vel_FY                                   0x200001b4   Data           4  main.o(.data)
    acc_FY                                   0x200001b8   Data           4  main.o(.data)
    pos_FY                                   0x200001bc   Data           4  main.o(.data)
    spe_FY                                   0x200001c0   Data           4  main.o(.data)
    sdac_FY                                  0x200001c4   Data           4  main.o(.data)
    dcc_FY                                   0x200001c8   Data           4  main.o(.data)
    sf_FY                                    0x200001cc   Data           4  main.o(.data)
    vel_FW                                   0x200001d0   Data           4  main.o(.data)
    acc_FW                                   0x200001d4   Data           4  main.o(.data)
    pos_FW                                   0x200001d8   Data           4  main.o(.data)
    spe_FW                                   0x200001dc   Data           4  main.o(.data)
    sdac_FW                                  0x200001e0   Data           4  main.o(.data)
    dcc_FW                                   0x200001e4   Data           4  main.o(.data)
    sf_FW                                    0x200001e8   Data           4  main.o(.data)
    CAN_ID                                   0x200001ec   Data           2  main.o(.data)
    hmf                                      0x200001ee   Data           1  main.o(.data)
    flagHmf                                  0x200001ef   Data           1  main.o(.data)
    hme                                      0x200001f0   Data           1  main.o(.data)
    prf                                      0x200001f4   Data           4  main.o(.data)
    pre                                      0x200001f8   Data           4  main.o(.data)
    spf_fw                                   0x200001fc   Data           4  main.o(.data)
    spf_fy                                   0x20000200   Data           4  main.o(.data)
    spe_fw                                   0x20000204   Data           4  main.o(.data)
    spe_fy                                   0x20000208   Data           4  main.o(.data)
    pxf_FW                                   0x2000020c   Data           4  main.o(.data)
    pxe                                      0x20000210   Data           4  main.o(.data)
    pef                                      0x20000214   Data           4  main.o(.data)
    pee                                      0x20000218   Data           4  main.o(.data)
    vxf                                      0x2000021c   Data           4  main.o(.data)
    vxe                                      0x20000220   Data           4  main.o(.data)
    vef                                      0x20000224   Data           4  main.o(.data)
    vee                                      0x20000228   Data           4  main.o(.data)
    acf_fw                                   0x2000022c   Data           4  main.o(.data)
    acf_fy                                   0x20000230   Data           4  main.o(.data)
    ace                                      0x20000234   Data           4  main.o(.data)
    sdf_fw                                   0x20000238   Data           4  main.o(.data)
    sdf_fy                                   0x2000023c   Data           4  main.o(.data)
    dcf_fw                                   0x20000240   Data           4  main.o(.data)
    dcf_fy                                   0x20000244   Data           4  main.o(.data)
    iqf                                      0x20000248   Data           4  main.o(.data)
    iqe                                      0x2000024c   Data           4  main.o(.data)
    iqf_usart_1                              0x20000250   Data           1  main.o(.data)
    iqf_usart_2                              0x20000251   Data           1  main.o(.data)
    iqf_usart_3                              0x20000252   Data           1  main.o(.data)
    iqf_usart_4                              0x20000253   Data           1  main.o(.data)
    hm_flag                                  0x20000254   Data           1  main.o(.data)
    hm_open_flag                             0x20000255   Data           1  main.o(.data)
    DA_JIAOZHENG                             0x20000258   Data           4  main.o(.data)
    DA_IN                                    0x2000025c   Data           4  main.o(.data)
    DA_RANGE                                 0x20000260   Data           4  main.o(.data)
    DA_out                                   0x20000264   Data           2  main.o(.data)
    DA_offset                                0x20000268   Data           4  main.o(.data)
    DA_k                                     0x2000026c   Data           4  main.o(.data)
    FW_scan_degree                           0x20000270   Data           4  main.o(.data)
    FY_scan_degree                           0x20000274   Data           4  main.o(.data)
    FW_scan_degree_out_int                   0x20000278   Data           4  main.o(.data)
    FY_scan_degree_out_int                   0x2000027c   Data           4  main.o(.data)
    scan_cnt                                 0x20000280   Data           1  main.o(.data)
    scan_cnt_derection                       0x20000281   Data           1  main.o(.data)
    FY_power_on_degrees                      0x20000284   Data           4  main.o(.data)
    FW_power_on_degrees                      0x20000288   Data           4  main.o(.data)
    FW_zero_flag                             0x2000028c   Data           1  main.o(.data)
    EC_fw                                    0x20000290   Data           4  main.o(.data)
    MF_fw                                    0x20000294   Data           4  main.o(.data)
    SR_fw                                    0x20000298   Data           4  main.o(.data)
    AN_1_fw                                  0x2000029c   Data           4  main.o(.data)
    AN_2_fw                                  0x200002a0   Data           4  main.o(.data)
    AN_3_fw                                  0x200002a4   Data           4  main.o(.data)
    AN_4_fw                                  0x200002a8   Data           4  main.o(.data)
    TI1_fw                                   0x200002ac   Data           4  main.o(.data)
    PX_fw                                    0x200002b0   Data           4  main.o(.data)
    PY_fw                                    0x200002b4   Data           4  main.o(.data)
    EE1_fw                                   0x200002b8   Data           4  main.o(.data)
    VX_fw                                    0x200002bc   Data           4  main.o(.data)
    SO_fw                                    0x200002c0   Data           4  main.o(.data)
    EC_fy                                    0x200002c4   Data           4  main.o(.data)
    MF_fy                                    0x200002c8   Data           4  main.o(.data)
    SR_fy                                    0x200002cc   Data           4  main.o(.data)
    AN_1_fy                                  0x200002d0   Data           4  main.o(.data)
    AN_2_fy                                  0x200002d4   Data           4  main.o(.data)
    AN_3_fy                                  0x200002d8   Data           4  main.o(.data)
    AN_4_fy                                  0x200002dc   Data           4  main.o(.data)
    TI1_fy                                   0x200002e0   Data           4  main.o(.data)
    PX_fy                                    0x200002e4   Data           4  main.o(.data)
    PY_fy                                    0x200002e8   Data           4  main.o(.data)
    EE1_fy                                   0x200002ec   Data           4  main.o(.data)
    VX_fy                                    0x200002f0   Data           4  main.o(.data)
    SO_fy                                    0x200002f4   Data           4  main.o(.data)
    NewAngle                                 0x200002f8   Data           4  main.o(.data)
    chang_value                              0x200002fc   Data           4  main.o(.data)
    x_1                                      0x20000300   Data           4  main.o(.data)
    x_2                                      0x20000304   Data           4  main.o(.data)
    count_1                                  0x20000308   Data           1  main.o(.data)
    FW_power_on_degrees_n                    0x2000030a   Data           2  main.o(.data)
    count_111                                0x2000030c   Data           1  main.o(.data)
    Lici_flag_GS                             0x20000310   Data           4  main.o(.data)
    r                                        0x20000314   Data           4  attitudealgorithm.o(.data)
    p                                        0x20000318   Data           4  attitudealgorithm.o(.data)
    y                                        0x2000031c   Data           4  attitudealgorithm.o(.data)
    angle_fy                                 0x20000320   Data           4  attitudealgorithm.o(.data)
    angle_fw                                 0x20000324   Data           4  attitudealgorithm.o(.data)
    angle_qj                                 0x20000328   Data           4  attitudealgorithm.o(.data)
    x1                                       0x2000032c   Data           4  attitudealgorithm.o(.data)
    y1                                       0x20000330   Data           4  attitudealgorithm.o(.data)
    z1                                       0x20000334   Data           4  attitudealgorithm.o(.data)
    FW_buchang_degree                        0x20000338   Data           4  attitudealgorithm.o(.data)
    FY_buchang_degree                        0x2000033c   Data           4  attitudealgorithm.o(.data)
    FW_location_actual_set                   0x20000340   Data           4  attitudealgorithm.o(.data)
    CarrierFW                                0x20000344   Data           4  attitudealgorithm.o(.data)
    CarrierFY                                0x20000348   Data           4  attitudealgorithm.o(.data)
    CarrierHG                                0x2000034c   Data           4  attitudealgorithm.o(.data)
    SpaceSetValueFW                          0x20000350   Data           4  attitudealgorithm.o(.data)
    SpaceSetValueFY                          0x20000354   Data           4  attitudealgorithm.o(.data)
    Angle_ly                                 0x20000358   Data           4  calculateslocation.o(.data)
    K1_ly                                    0x2000035c   Data           4  calculateslocation.o(.data)
    K2_ly                                    0x20000360   Data           4  calculateslocation.o(.data)
    Space_FY                                 0x20000364   Data           4  calculateslocation.o(.data)
    Space_FW                                 0x20000368   Data           4  calculateslocation.o(.data)
    x1_1_z                                   0x2000036c   Data           4  calculateslocation.o(.data)
    y1_1_z                                   0x20000370   Data           4  calculateslocation.o(.data)
    z1_1_z                                   0x20000374   Data           4  calculateslocation.o(.data)
    ppp                                      0x20000378   Data           4  calculateslocation.o(.data)
    yyy                                      0x2000037c   Data           4  calculateslocation.o(.data)
    pBuf                                     0x20000380   Data           4  elmo.o(.data)
    pBuf_float                               0x20000384   Data           4  elmo.o(.data)
    WaiTongBu_Scan_StepCount                 0x20000388   Data           4  exit.o(.data)
    WaiTongBu_step_design_set                0x2000038c   Data           4  exit.o(.data)
    WaiTongBu_MaiChong_cnt                   0x20000390   Data           4  exit.o(.data)
    WaiTongBu_ScanAngleRang                  0x20000394   Data           4  exit.o(.data)
    WaiTongBu_FY_ScanAngleRang               0x20000398   Data           4  exit.o(.data)
    WaiTongBu_FW_ScanStepLength              0x2000039c   Data           4  exit.o(.data)
    WaiTongBu_Scan_Direction                 0x200003a0   Data           4  exit.o(.data)
    WaiTongBu_FW_Scan_StopAngle              0x200003a4   Data           4  exit.o(.data)
    WaiTongBu_FW_Scan_StartAngle             0x200003a8   Data           4  exit.o(.data)
    WaiTongBu_Flag_Com_Direction             0x200003ac   Data           4  exit.o(.data)
    WaiTongBu_FW_Direction                   0x200003b0   Data           4  exit.o(.data)
    WaiTongBu_FY_Direction                   0x200003b4   Data           4  exit.o(.data)
    WaiTongBu_Cha                            0x200003b8   Data           4  exit.o(.data)
    WaiTongBu_PanFangXiang                   0x200003bc   Data           4  exit.o(.data)
    FY_WaiTongBu_ZhiXing                     0x200003c0   Data           4  exit.o(.data)
    WaiTongBu_Start_cnt                      0x200003c4   Data           1  exit.o(.data)
    Chang_Kp_CNT                             0x200003c6   Data           2  exit.o(.data)
    EXIT_POINT_FLAG                          0x200003c8   Data           1  exit.o(.data)
    EXIT_Scan_Number                         0x200003ca   Data           2  exit.o(.data)
    KongJianZhiXiang_FWLY                    0x200003cc   Data           4  exit.o(.data)
    KongJianZhiXiang_FYLY                    0x200003d0   Data           4  exit.o(.data)
    ZhiXiang_Complete_FlagLY                 0x200003d4   Data           1  exit.o(.data)
    EXIT_FW_Zero                             0x200003d8   Data           4  exit.o(.data)
    EXIT_FY_Zero                             0x200003dc   Data           4  exit.o(.data)
    EXIT_LianXu_FLAG                         0x200003e0   Data           1  exit.o(.data)
    EXIT_Song                                0x200003e1   Data           1  exit.o(.data)
    MoShiQieHuan                             0x200003e2   Data           1  exit.o(.data)
    KJZX_FW_last                             0x200003e4   Data           4  exit.o(.data)
    step_EXIT_ly_prepass                     0x200003e8   Data           4  exit.o(.data)
    step_EXIT_Y_prepass                      0x200003ec   Data           4  exit.o(.data)
    BeginMove_flag                           0x200003f0   Data           1  exit.o(.data)
    BeginMove_CNT                            0x200003f2   Data           2  exit.o(.data)
    WaiTongBu_BianLiang                      0x200003f4   Data           1  exit.o(.data)
    Zhuang_Right                             0x200003f5   Data           1  exit.o(.data)
    Zhuang_Left                              0x200003f6   Data           1  exit.o(.data)
    z_cnt                                    0x200003f8   Data           1  extiz.o(.data)
    EXTI2_FLAG                               0x200003f9   Data           1  extiz.o(.data)
    EXTI2_CNT                                0x200003fc   Data           4  extiz.o(.data)
    X0_fsmTao1                               0x20000400   Data           4  fsmcompensator.o(.data)
    X0_fsmTao2                               0x20000404   Data           4  fsmcompensator.o(.data)
    X0_fsmT1                                 0x20000408   Data           4  fsmcompensator.o(.data)
    X0_fsmT2                                 0x2000040c   Data           4  fsmcompensator.o(.data)
    X1_fsmTao1                               0x20000410   Data           4  fsmcompensator.o(.data)
    X1_fsmTao2                               0x20000414   Data           4  fsmcompensator.o(.data)
    X1_fsmT1                                 0x20000418   Data           4  fsmcompensator.o(.data)
    X1_fsmT2                                 0x2000041c   Data           4  fsmcompensator.o(.data)
    X2_fsmTao1                               0x20000420   Data           4  fsmcompensator.o(.data)
    X2_fsmTao2                               0x20000424   Data           4  fsmcompensator.o(.data)
    X2_fsmT1                                 0x20000428   Data           4  fsmcompensator.o(.data)
    X2_fsmT2                                 0x2000042c   Data           4  fsmcompensator.o(.data)
    X3_fsmTao1                               0x20000430   Data           4  fsmcompensator.o(.data)
    X3_fsmTao2                               0x20000434   Data           4  fsmcompensator.o(.data)
    X3_fsmT1                                 0x20000438   Data           4  fsmcompensator.o(.data)
    X3_fsmT2                                 0x2000043c   Data           4  fsmcompensator.o(.data)
    X4_fsmTao1                               0x20000440   Data           4  fsmcompensator.o(.data)
    X4_fsmTao2                               0x20000444   Data           4  fsmcompensator.o(.data)
    X4_fsmT1                                 0x20000448   Data           4  fsmcompensator.o(.data)
    X4_fsmT2                                 0x2000044c   Data           4  fsmcompensator.o(.data)
    X5_fsmTao1                               0x20000450   Data           4  fsmcompensator.o(.data)
    X5_fsmTao2                               0x20000454   Data           4  fsmcompensator.o(.data)
    X5_fsmT1                                 0x20000458   Data           4  fsmcompensator.o(.data)
    X5_fsmT2                                 0x2000045c   Data           4  fsmcompensator.o(.data)
    X6_fsmTao1                               0x20000460   Data           4  fsmcompensator.o(.data)
    X6_fsmTao2                               0x20000464   Data           4  fsmcompensator.o(.data)
    X6_fsmT1                                 0x20000468   Data           4  fsmcompensator.o(.data)
    X6_fsmT2                                 0x2000046c   Data           4  fsmcompensator.o(.data)
    X7_fsmTao1                               0x20000470   Data           4  fsmcompensator.o(.data)
    X7_fsmTao2                               0x20000474   Data           4  fsmcompensator.o(.data)
    X7_fsmT1                                 0x20000478   Data           4  fsmcompensator.o(.data)
    X7_fsmT2                                 0x2000047c   Data           4  fsmcompensator.o(.data)
    Y0_fsmTao1                               0x20000480   Data           4  fsmcompensator.o(.data)
    Y0_fsmTao2                               0x20000484   Data           4  fsmcompensator.o(.data)
    Y0_fsmT1                                 0x20000488   Data           4  fsmcompensator.o(.data)
    Y0_fsmT2                                 0x2000048c   Data           4  fsmcompensator.o(.data)
    Y1_fsmTao1                               0x20000490   Data           4  fsmcompensator.o(.data)
    Y1_fsmTao2                               0x20000494   Data           4  fsmcompensator.o(.data)
    Y1_fsmT1                                 0x20000498   Data           4  fsmcompensator.o(.data)
    Y1_fsmT2                                 0x2000049c   Data           4  fsmcompensator.o(.data)
    Y2_fsmTao1                               0x200004a0   Data           4  fsmcompensator.o(.data)
    Y2_fsmTao2                               0x200004a4   Data           4  fsmcompensator.o(.data)
    Y2_fsmT1                                 0x200004a8   Data           4  fsmcompensator.o(.data)
    Y2_fsmT2                                 0x200004ac   Data           4  fsmcompensator.o(.data)
    Y3_fsmTao1                               0x200004b0   Data           4  fsmcompensator.o(.data)
    Y3_fsmTao2                               0x200004b4   Data           4  fsmcompensator.o(.data)
    Y3_fsmT1                                 0x200004b8   Data           4  fsmcompensator.o(.data)
    Y3_fsmT2                                 0x200004bc   Data           4  fsmcompensator.o(.data)
    Y4_fsmTao1                               0x200004c0   Data           4  fsmcompensator.o(.data)
    Y4_fsmTao2                               0x200004c4   Data           4  fsmcompensator.o(.data)
    Y4_fsmT1                                 0x200004c8   Data           4  fsmcompensator.o(.data)
    Y4_fsmT2                                 0x200004cc   Data           4  fsmcompensator.o(.data)
    Y5_fsmTao1                               0x200004d0   Data           4  fsmcompensator.o(.data)
    Y5_fsmTao2                               0x200004d4   Data           4  fsmcompensator.o(.data)
    Y5_fsmT1                                 0x200004d8   Data           4  fsmcompensator.o(.data)
    Y5_fsmT2                                 0x200004dc   Data           4  fsmcompensator.o(.data)
    Y6_fsmTao1                               0x200004e0   Data           4  fsmcompensator.o(.data)
    Y6_fsmTao2                               0x200004e4   Data           4  fsmcompensator.o(.data)
    Y6_fsmT1                                 0x200004e8   Data           4  fsmcompensator.o(.data)
    Y6_fsmT2                                 0x200004ec   Data           4  fsmcompensator.o(.data)
    Y7_fsmTao1                               0x200004f0   Data           4  fsmcompensator.o(.data)
    Y7_fsmTao2                               0x200004f4   Data           4  fsmcompensator.o(.data)
    Y7_fsmT1                                 0x200004f8   Data           4  fsmcompensator.o(.data)
    Y7_fsmT2                                 0x200004fc   Data           4  fsmcompensator.o(.data)
    X8_fsmTao1                               0x20000500   Data           4  fsmcompensator.o(.data)
    Y8_fsmTao1                               0x20000504   Data           4  fsmcompensator.o(.data)
    X9_fsmTao1                               0x20000508   Data           4  fsmcompensator.o(.data)
    Y9_fsmTao1                               0x2000050c   Data           4  fsmcompensator.o(.data)
    X10_fsmTao1                              0x20000510   Data           4  fsmcompensator.o(.data)
    X10_fsmT1                                0x20000514   Data           4  fsmcompensator.o(.data)
    Y10_fsmTao1                              0x20000518   Data           4  fsmcompensator.o(.data)
    Y10_fsmT1                                0x2000051c   Data           4  fsmcompensator.o(.data)
    fsmLeadLag1T1Hz                          0x20000520   Data           4  fsmcompensator.o(.data)
    fsmLeadLag1Tao1Hz                        0x20000524   Data           4  fsmcompensator.o(.data)
    fsmLeadLag2T1Hz                          0x20000528   Data           4  fsmcompensator.o(.data)
    fsmLeadLag2Tao1Hz                        0x2000052c   Data           4  fsmcompensator.o(.data)
    fsmLeadLag2T2Hz                          0x20000530   Data           4  fsmcompensator.o(.data)
    fsmLeadLag2Tao2Hz                        0x20000534   Data           4  fsmcompensator.o(.data)
    fsmTustinT                               0x20000538   Data           8  fsmcompensator.o(.data)
    fsmLeadLag3Tao                           0x20000540   Data           4  fsmcompensator.o(.data)
    fsmLeadLag4Tao                           0x20000544   Data           4  fsmcompensator.o(.data)
    Km                                       0x20000548   Data           4  fsmcompensator.o(.data)
    Tm                                       0x2000054c   Data           4  fsmcompensator.o(.data)
    Te                                       0x20000550   Data           4  fsmcompensator.o(.data)
    J                                        0x20000554   Data           4  fsmcompensator.o(.data)
    Jm                                       0x20000558   Data           4  fsmcompensator.o(.data)
    JL                                       0x2000055c   Data           4  fsmcompensator.o(.data)
    Ra                                       0x20000560   Data           4  fsmcompensator.o(.data)
    La                                       0x20000564   Data           4  fsmcompensator.o(.data)
    Kb                                       0x20000568   Data           4  fsmcompensator.o(.data)
    Ki                                       0x2000056c   Data           4  fsmcompensator.o(.data)
    Ke                                       0x20000570   Data           4  fsmcompensator.o(.data)
    X0_fsm_wn_servo                          0x20000578   Data           4  fsmcompensator_servo.o(.data)
    X0_fsm_kesi_servo                        0x2000057c   Data           4  fsmcompensator_servo.o(.data)
    X0_fsm_T1_servo                          0x20000580   Data           4  fsmcompensator_servo.o(.data)
    X0_fsm_T2_servo                          0x20000584   Data           4  fsmcompensator_servo.o(.data)
    X1_fsmTao1_servo                         0x20000588   Data           4  fsmcompensator_servo.o(.data)
    X1_fsmTao2_servo                         0x2000058c   Data           4  fsmcompensator_servo.o(.data)
    X1_fsmT1_servo                           0x20000590   Data           4  fsmcompensator_servo.o(.data)
    X1_fsmT2_servo                           0x20000594   Data           4  fsmcompensator_servo.o(.data)
    X2_fsmTao1_servo                         0x20000598   Data           4  fsmcompensator_servo.o(.data)
    X2_fsmTao2_servo                         0x2000059c   Data           4  fsmcompensator_servo.o(.data)
    X2_fsmT1_servo                           0x200005a0   Data           4  fsmcompensator_servo.o(.data)
    X2_fsmT2_servo                           0x200005a4   Data           4  fsmcompensator_servo.o(.data)
    X3_fsmTao1_servo                         0x200005a8   Data           4  fsmcompensator_servo.o(.data)
    X3_fsmTao2_servo                         0x200005ac   Data           4  fsmcompensator_servo.o(.data)
    X3_fsmT1_servo                           0x200005b0   Data           4  fsmcompensator_servo.o(.data)
    X3_fsmT2_servo                           0x200005b4   Data           4  fsmcompensator_servo.o(.data)
    X4_fsmTao1_servo                         0x200005b8   Data           4  fsmcompensator_servo.o(.data)
    X4_fsmTao2_servo                         0x200005bc   Data           4  fsmcompensator_servo.o(.data)
    X4_fsmT1_servo                           0x200005c0   Data           4  fsmcompensator_servo.o(.data)
    X4_fsmT2_servo                           0x200005c4   Data           4  fsmcompensator_servo.o(.data)
    X5_fsmTao1_servo                         0x200005c8   Data           4  fsmcompensator_servo.o(.data)
    X5_fsmTao2_servo                         0x200005cc   Data           4  fsmcompensator_servo.o(.data)
    X5_fsmT1_servo                           0x200005d0   Data           4  fsmcompensator_servo.o(.data)
    X5_fsmT2_servo                           0x200005d4   Data           4  fsmcompensator_servo.o(.data)
    X6_fsmTao1_servo                         0x200005d8   Data           4  fsmcompensator_servo.o(.data)
    X6_fsmTao2_servo                         0x200005dc   Data           4  fsmcompensator_servo.o(.data)
    X6_fsmT1_servo                           0x200005e0   Data           4  fsmcompensator_servo.o(.data)
    X6_fsmT2_servo                           0x200005e4   Data           4  fsmcompensator_servo.o(.data)
    X7_fsmTao1_servo                         0x200005e8   Data           4  fsmcompensator_servo.o(.data)
    X7_fsmTao2_servo                         0x200005ec   Data           4  fsmcompensator_servo.o(.data)
    X7_fsmT1_servo                           0x200005f0   Data           4  fsmcompensator_servo.o(.data)
    X7_fsmT2_servo                           0x200005f4   Data           4  fsmcompensator_servo.o(.data)
    Y0_fsm_wn_servo                          0x200005f8   Data           4  fsmcompensator_servo.o(.data)
    Y0_fsm_kesi_servo                        0x200005fc   Data           4  fsmcompensator_servo.o(.data)
    Y0_fsm_T1_servo                          0x20000600   Data           4  fsmcompensator_servo.o(.data)
    Y0_fsm_T2_servo                          0x20000604   Data           4  fsmcompensator_servo.o(.data)
    Y1_fsmTao1_servo                         0x20000608   Data           4  fsmcompensator_servo.o(.data)
    Y1_fsmTao2_servo                         0x2000060c   Data           4  fsmcompensator_servo.o(.data)
    Y1_fsmT1_servo                           0x20000610   Data           4  fsmcompensator_servo.o(.data)
    Y1_fsmT2_servo                           0x20000614   Data           4  fsmcompensator_servo.o(.data)
    Y2_fsmTao1_servo                         0x20000618   Data           4  fsmcompensator_servo.o(.data)
    Y2_fsmTao2_servo                         0x2000061c   Data           4  fsmcompensator_servo.o(.data)
    Y2_fsmT1_servo                           0x20000620   Data           4  fsmcompensator_servo.o(.data)
    Y2_fsmT2_servo                           0x20000624   Data           4  fsmcompensator_servo.o(.data)
    Y3_fsmTao1_servo                         0x20000628   Data           4  fsmcompensator_servo.o(.data)
    Y3_fsmTao2_servo                         0x2000062c   Data           4  fsmcompensator_servo.o(.data)
    Y3_fsmT1_servo                           0x20000630   Data           4  fsmcompensator_servo.o(.data)
    Y3_fsmT2_servo                           0x20000634   Data           4  fsmcompensator_servo.o(.data)
    Y4_fsmTao1_servo                         0x20000638   Data           4  fsmcompensator_servo.o(.data)
    Y4_fsmTao2_servo                         0x2000063c   Data           4  fsmcompensator_servo.o(.data)
    Y4_fsmT1_servo                           0x20000640   Data           4  fsmcompensator_servo.o(.data)
    Y4_fsmT2_servo                           0x20000644   Data           4  fsmcompensator_servo.o(.data)
    Y5_fsmTao1_servo                         0x20000648   Data           4  fsmcompensator_servo.o(.data)
    Y5_fsmTao2_servo                         0x2000064c   Data           4  fsmcompensator_servo.o(.data)
    Y5_fsmT1_servo                           0x20000650   Data           4  fsmcompensator_servo.o(.data)
    Y5_fsmT2_servo                           0x20000654   Data           4  fsmcompensator_servo.o(.data)
    Y6_fsmTao1_servo                         0x20000658   Data           4  fsmcompensator_servo.o(.data)
    Y6_fsmTao2_servo                         0x2000065c   Data           4  fsmcompensator_servo.o(.data)
    Y6_fsmT1_servo                           0x20000660   Data           4  fsmcompensator_servo.o(.data)
    Y6_fsmT2_servo                           0x20000664   Data           4  fsmcompensator_servo.o(.data)
    Y7_fsmTao1_servo                         0x20000668   Data           4  fsmcompensator_servo.o(.data)
    Y7_fsmTao2_servo                         0x2000066c   Data           4  fsmcompensator_servo.o(.data)
    Y7_fsmT1_servo                           0x20000670   Data           4  fsmcompensator_servo.o(.data)
    Y7_fsmT2_servo                           0x20000674   Data           4  fsmcompensator_servo.o(.data)
    fsmLeadLag1T1Hz_servo                    0x20000678   Data           4  fsmcompensator_servo.o(.data)
    fsmLeadLag1Tao1Hz_servo                  0x2000067c   Data           4  fsmcompensator_servo.o(.data)
    fsmLeadLag2T1Hz_servo                    0x20000680   Data           4  fsmcompensator_servo.o(.data)
    fsmLeadLag2Tao1Hz_servo                  0x20000684   Data           4  fsmcompensator_servo.o(.data)
    fsmLeadLag2T2Hz_servo                    0x20000688   Data           4  fsmcompensator_servo.o(.data)
    fsmLeadLag2Tao2Hz_servo                  0x2000068c   Data           4  fsmcompensator_servo.o(.data)
    fsmTustinT_servo                         0x20000690   Data           8  fsmcompensator_servo.o(.data)
    ad1_out_u                                0x20000698   Data           2  ioinit.o(.data)
    OFFset                                   0x2000069c   Data           4  ioinit.o(.data)
    ad2_out_u                                0x200006a0   Data           2  ioinit.o(.data)
    F_biaozhi1                               0x200006a4   Data           4  ioinit.o(.data)
    F_biaozhi2                               0x200006a8   Data           4  ioinit.o(.data)
    FW_limit_tuoluo_value                    0x200006ac   Data           4  motoroutputposse.o(.data)
    velocity_tuoluo_limit_value_set          0x200006b0   Data           4  motoroutputposse.o(.data)
    GS_Suidong_velocity_limit_set            0x200006b4   Data           4  motoroutputposse.o(.data)
    FW_limit_acc_value                       0x200006b8   Data           4  motoroutputposse.o(.data)
    FY_limit_acc_value                       0x200006bc   Data           4  motoroutputposse.o(.data)
    FW_output_value                          0x200006c0   Data           4  motoroutputposse.o(.data)
    FY_output_value                          0x200006c4   Data           4  motoroutputposse.o(.data)
    FW_output_value_last                     0x200006c8   Data           4  motoroutputposse.o(.data)
    FY_output_value_last                     0x200006cc   Data           4  motoroutputposse.o(.data)
    accelerate_limit_1ms                     0x200006d0   Data           4  motoroutputposse.o(.data)
    FW_output_value_da                       0x200006d4   Data           4  motoroutputposse.o(.data)
    FY_output_value_da                       0x200006d8   Data           4  motoroutputposse.o(.data)
    DA_Test_LY                               0x200006dc   Data           4  motoroutputposse.o(.data)
    FW_revise_out_speed                      0x200006e0   Data           4  motoroutputposse.o(.data)
    FY_revise_out_speed                      0x200006e4   Data           4  motoroutputposse.o(.data)
    FY_track_qiankui_speed_k                 0x200006e8   Data           4  motoroutputposse.o(.data)
    FY_track_qiankui_speed_lowpass           0x200006ec   Data           4  motoroutputposse.o(.data)
    FY_wending_qiankui_speed_k               0x200006f0   Data           4  motoroutputposse.o(.data)
    FY_wending_qiankui_speed_lowpass         0x200006f4   Data           4  motoroutputposse.o(.data)
    FW_wending_qiankui_speed_k               0x200006f8   Data           4  motoroutputposse.o(.data)
    FW_track_qiankui_speed_k                 0x200006fc   Data           4  motoroutputposse.o(.data)
    FW_track_qiankui_speed_lowpass           0x20000700   Data           4  motoroutputposse.o(.data)
    FW_wending_qiankui_speed_lowpass         0x20000704   Data           4  motoroutputposse.o(.data)
    QK_k                                     0x20000708   Data           4  motoroutputposse.o(.data)
    QK_k_FW                                  0x2000070c   Data           4  motoroutputposse.o(.data)
    kp_guangshan_tuob_X                      0x20000710   Data           4  motoroutputposse.o(.data)
    kp_guangshan_tuob_Y                      0x20000714   Data           4  motoroutputposse.o(.data)
    acc_output                               0x20000718   Data           4  motoroutputposse.o(.data)
    velocity_output                          0x2000071c   Data           4  motoroutputposse.o(.data)
    output_voltage                           0x20000720   Data           4  motoroutputposse.o(.data)
    v_zhixiang_num                           0x20000724   Data           4  pointfunction.o(.data)
    FW_pianzhi                               0x20000728   Data           4  pointfunction.o(.data)
    FY_pianzhi                               0x2000072c   Data           4  pointfunction.o(.data)
    Point_FW_set_prepass                     0x20000730   Data           4  pointfunction.o(.data)
    Point_FY_set_prepass                     0x20000734   Data           4  pointfunction.o(.data)
    FW_pointing_degree_LY                    0x20000738   Data           4  pointfunction.o(.data)
    FY_pointing_degree_LY                    0x2000073c   Data           4  pointfunction.o(.data)
    FW_pointing_degree_set                   0x20000740   Data           4  pointfunction.o(.data)
    FW_pointing_degree_out                   0x20000744   Data           4  pointfunction.o(.data)
    FY_pointing_degree_set                   0x20000748   Data           4  pointfunction.o(.data)
    FY_pointing_degree_out                   0x2000074c   Data           4  pointfunction.o(.data)
    FY_location_set_last                     0x20000750   Data           4  pointfunction.o(.data)
    FY_target_speed                          0x20000754   Data           4  pointfunction.o(.data)
    FW_target_speed                          0x20000758   Data           4  pointfunction.o(.data)
    FW_location_set_last                     0x2000075c   Data           4  pointfunction.o(.data)
    ZhiXiangFlag                             0x20000760   Data           1  pointfunction.o(.data)
    acc_vel_flag                             0x20000761   Data           1  pointfunction.o(.data)
    FW_KongJian_offset                       0x20000764   Data           4  pointfunction.o(.data)
    FY_KongJian_offset                       0x20000768   Data           4  pointfunction.o(.data)
    KongJian_Set                             0x2000076c   Data           4  pointfunction.o(.data)
    GuiLing_Set                              0x20000770   Data           4  pointfunction.o(.data)
    FY_KongJian_Set                          0x20000774   Data           4  pointfunction.o(.data)
    FY_GuiLing_Set                           0x20000778   Data           4  pointfunction.o(.data)
    KongJian_CNT                             0x2000077c   Data           2  pointfunction.o(.data)
    KongJianZhiXiang_flag                    0x2000077e   Data           1  pointfunction.o(.data)
    GuiLing_flag                             0x2000077f   Data           1  pointfunction.o(.data)
    GuiLin_CNT                               0x20000780   Data           2  pointfunction.o(.data)
    KongJianPoin_flag                        0x20000782   Data           1  pointfunction.o(.data)
    KongJianPoint_FW                         0x20000784   Data           4  pointfunction.o(.data)
    KongJianPoint_Complete_Flag              0x20000788   Data           1  pointfunction.o(.data)
    KongJianPoint_FY                         0x2000078c   Data           4  pointfunction.o(.data)
    KongJianPoint_FW_Zero                    0x20000790   Data           4  pointfunction.o(.data)
    KongJianPoint_FY_Zero                    0x20000794   Data           4  pointfunction.o(.data)
    Eqution_Flag                             0x20000798   Data           4  pointfunction.o(.data)
    FW_New_BM                                0x2000079c   Data           4  pointfunction.o(.data)
    FY_New_BM                                0x200007a0   Data           4  pointfunction.o(.data)
    axisAngle                                0x200007a4   Data           8  pointfunction.o(.data)
    spaceAngle                               0x200007ac   Data           8  pointfunction.o(.data)
    FX_set_prepass_xiuzheng                  0x200007b4   Data           4  positionloop.o(.data)
    FY_set_prepass_xiuzheng                  0x200007b8   Data           4  positionloop.o(.data)
    FW_tuoluo_out                            0x200007bc   Data           4  positionloop.o(.data)
    FY_tuoluo_out                            0x200007c0   Data           4  positionloop.o(.data)
    FW_tuoluo_kp                             0x200007c4   Data           4  positionloop.o(.data)
    FY_tuoluo_kp                             0x200007c8   Data           4  positionloop.o(.data)
    FW_tuoluo_ki                             0x200007cc   Data           4  positionloop.o(.data)
    FY_tuoluo_ki                             0x200007d0   Data           4  positionloop.o(.data)
    FW_tuoluo_kd                             0x200007d4   Data           4  positionloop.o(.data)
    FY_tuoluo_kd                             0x200007d8   Data           4  positionloop.o(.data)
    FW_tuoluo_loop_error_diff                0x200007dc   Data           4  positionloop.o(.data)
    FY_tuoluo_loop_error_diff                0x200007e0   Data           4  positionloop.o(.data)
    FW_tuoluo_loop_error_sum                 0x200007e4   Data           4  positionloop.o(.data)
    FY_tuoluo_loop_error_sum                 0x200007e8   Data           4  positionloop.o(.data)
    FW_tuoluo_loop_error_last                0x200007ec   Data           4  positionloop.o(.data)
    FY_tuoluo_loop_error_last                0x200007f0   Data           4  positionloop.o(.data)
    FW_tuoluo_loop_error                     0x200007f4   Data           4  positionloop.o(.data)
    FY_tuoluo_loop_error                     0x200007f8   Data           4  positionloop.o(.data)
    jifen_FW                                 0x200007fc   Data           4  positionloop.o(.data)
    jifen_FY                                 0x20000800   Data           4  positionloop.o(.data)
    W_FW                                     0x20000804   Data           4  positionloop.o(.data)
    W_FY                                     0x20000808   Data           4  positionloop.o(.data)
    Gain                                     0x2000080c   Data           4  positionloop.o(.data)
    FW_revise_out_1                          0x20000810   Data           4  positionloop.o(.data)
    FW_revise_out_2                          0x20000814   Data           4  positionloop.o(.data)
    FW_revise_out_3                          0x20000818   Data           4  positionloop.o(.data)
    FY_revise_out_1                          0x2000081c   Data           4  positionloop.o(.data)
    FY_revise_out_2                          0x20000820   Data           4  positionloop.o(.data)
    FY_revise_out_3                          0x20000824   Data           4  positionloop.o(.data)
    FW_revise_out                            0x20000828   Data           4  positionloop.o(.data)
    FY_revise_out                            0x2000082c   Data           4  positionloop.o(.data)
    FY_location_loop_k                       0x20000830   Data           4  positionloop.o(.data)
    FY_location_loop_k_1                     0x20000834   Data           4  positionloop.o(.data)
    FY_location_loop_k_2                     0x20000838   Data           4  positionloop.o(.data)
    FY_location_low_pass                     0x2000083c   Data           4  positionloop.o(.data)
    FY_leadlag1_out                          0x20000840   Data           4  positionloop.o(.data)
    FY_leadlag2_out                          0x20000844   Data           4  positionloop.o(.data)
    FY_location_loop_error                   0x20000848   Data           4  positionloop.o(.data)
    FW_location_loop_error                   0x2000084c   Data           4  positionloop.o(.data)
    FW_location_loop_actual_error            0x20000850   Data           4  positionloop.o(.data)
    FW_location_low_pass                     0x20000854   Data           4  positionloop.o(.data)
    FW_location_loop_k                       0x20000858   Data           4  positionloop.o(.data)
    FW_location_loop_k_1                     0x2000085c   Data           4  positionloop.o(.data)
    FW_location_loop_k_2                     0x20000860   Data           4  positionloop.o(.data)
    FW_leadlag1_out                          0x20000864   Data           4  positionloop.o(.data)
    FW_leadlag2_out                          0x20000868   Data           4  positionloop.o(.data)
    FW_location_loop_error_sum               0x2000086c   Data           4  positionloop.o(.data)
    FW_location_loop_error_last              0x20000870   Data           4  positionloop.o(.data)
    FW_location_loop_error_diff              0x20000874   Data           4  positionloop.o(.data)
    error_sum_limit                          0x20000878   Data           4  positionloop.o(.data)
    jifen                                    0x2000087c   Data           4  positionloop.o(.data)
    jifen_fy                                 0x20000880   Data           4  positionloop.o(.data)
    jifen_limit                              0x20000884   Data           4  positionloop.o(.data)
    FW_location_ki                           0x20000888   Data           4  positionloop.o(.data)
    FY_location_ki                           0x2000088c   Data           4  positionloop.o(.data)
    FW_location_kd                           0x20000890   Data           4  positionloop.o(.data)
    FW_location_kp                           0x20000894   Data           4  positionloop.o(.data)
    FY_Watch_shuyin_error                    0x20000898   Data           4  positionloop.o(.data)
    Position_k                               0x2000089c   Data           4  positionloop.o(.data)
    Watch_location_loop                      0x200008a0   Data           4  positionloop.o(.data)
    FY_k_1                                   0x200008a4   Data           4  positionloop.o(.data)
    FY_location_loop_error_sum               0x200008a8   Data           4  positionloop.o(.data)
    FY_location_loop_error_diff              0x200008ac   Data           4  positionloop.o(.data)
    FY_location_loop_error_last              0x200008b0   Data           4  positionloop.o(.data)
    FY_location_kp                           0x200008b4   Data           4  positionloop.o(.data)
    FY_location_kd                           0x200008b8   Data           4  positionloop.o(.data)
    count_dazhi_FY                           0x200008bc   Data           1  positionloop.o(.data)
    count_dazhi_FW                           0x200008bd   Data           1  positionloop.o(.data)
    Begin                                    0x200008be   Data           1  positionloop.o(.data)
    miss_distance_X_float                    0x200008c0   Data           4  servofunction.o(.data)
    miss_distance_Y_float                    0x200008c4   Data           4  servofunction.o(.data)
    miss_distance_Y_float_to_angle           0x200008c8   Data           4  servofunction.o(.data)
    miss_distance_X_float_to_angle           0x200008cc   Data           4  servofunction.o(.data)
    track_axis_select                        0x200008d0   Data           1  servofunction.o(.data)
    miss_cnt_10ms                            0x200008d1   Data           1  servofunction.o(.data)
    track_type_select                        0x200008d2   Data           1  servofunction.o(.data)
    FW_miss_distance_error_lowpass           0x200008d4   Data           4  servofunction.o(.data)
    FY_miss_distance_error_lowpass           0x200008d8   Data           4  servofunction.o(.data)
    FW_moni_miss                             0x200008dc   Data           4  servofunction.o(.data)
    FY_moni_miss                             0x200008e0   Data           4  servofunction.o(.data)
    FW_light_loop_k                          0x200008e4   Data           4  servofunction.o(.data)
    FW_light_loop_revise                     0x200008e8   Data           4  servofunction.o(.data)
    FW_light_loop_k_1                        0x200008ec   Data           4  servofunction.o(.data)
    FW_miss_distance_error                   0x200008f0   Data           4  servofunction.o(.data)
    FW_light_loop_k_2                        0x200008f4   Data           4  servofunction.o(.data)
    FW_pi_tao                                0x200008f8   Data           4  servofunction.o(.data)
    FW_pi_w                                  0x200008fc   Data           4  servofunction.o(.data)
    FW_pi_hz                                 0x20000900   Data           4  servofunction.o(.data)
    FW_miss_distance_error_lowpass_sum       0x20000904   Data           4  servofunction.o(.data)
    FW_pi_K                                  0x20000908   Data           4  servofunction.o(.data)
    miss_distance_X_flag                     0x2000090c   Data           1  servofunction.o(.data)
    FY_pi_d1                                 0x20000910   Data           4  servofunction.o(.data)
    FY_pi_i1                                 0x20000914   Data           4  servofunction.o(.data)
    FY_pi_K1                                 0x20000918   Data           4  servofunction.o(.data)
    FW_pi_i1                                 0x2000091c   Data           4  servofunction.o(.data)
    FW_pi_K1                                 0x20000920   Data           4  servofunction.o(.data)
    FY_light_loop_k1                         0x20000924   Data           4  servofunction.o(.data)
    FY_light_loop_k                          0x20000928   Data           4  servofunction.o(.data)
    FY_light_loop_k_1                        0x2000092c   Data           4  servofunction.o(.data)
    FY_light_loop_k_2                        0x20000930   Data           4  servofunction.o(.data)
    FY_light_loop_revise                     0x20000934   Data           4  servofunction.o(.data)
    FY_miss_distance_error                   0x20000938   Data           4  servofunction.o(.data)
    FY_pi_tao                                0x2000093c   Data           4  servofunction.o(.data)
    FY_pi_w                                  0x20000940   Data           4  servofunction.o(.data)
    FY_pi_hz                                 0x20000944   Data           4  servofunction.o(.data)
    FY_miss_distance_error_lowpass_sum       0x20000948   Data           4  servofunction.o(.data)
    FY_miss_distance_error_lowpass_last      0x2000094c   Data           4  servofunction.o(.data)
    FY_miss_distance_light_diff              0x20000950   Data           4  servofunction.o(.data)
    FY_pi_K                                  0x20000954   Data           4  servofunction.o(.data)
    FW_light_para_set                        0x20000958   Data           1  servofunction.o(.data)
    FY_light_para_set                        0x20000959   Data           1  servofunction.o(.data)
    Song                                     0x2000095a   Data           1  servofunction.o(.data)
    miss_offset_X                            0x2000095c   Data           4  servofunction.o(.data)
    miss_offset_Y                            0x20000960   Data           4  servofunction.o(.data)
    Amp_sin                                  0x20000964   Data           4  servofunction.o(.data)
    FW_moni_offset                           0x20000968   Data           4  servofunction.o(.data)
    FW_moni_mrad                             0x2000096c   Data           4  servofunction.o(.data)
    FY_moni_mrad                             0x20000970   Data           4  servofunction.o(.data)
    FW_RMS_mrad                              0x20000974   Data           4  servofunction.o(.data)
    FY_RMS_mrad                              0x20000978   Data           4  servofunction.o(.data)
    Scan_StepCount_ly                        0x2000097c   Data           4  scanfunction.o(.data)
    ScanAngleRang_ly                         0x20000980   Data           4  scanfunction.o(.data)
    FW_ScanStepLength_ly                     0x20000984   Data           4  scanfunction.o(.data)
    PanFangXiang                             0x20000988   Data           4  scanfunction.o(.data)
    Scan_Direction_ly                        0x2000098c   Data           4  scanfunction.o(.data)
    FW_Scan_StartAngle_ly                    0x20000990   Data           4  scanfunction.o(.data)
    FW_Scan_StopAngle_ly                     0x20000994   Data           4  scanfunction.o(.data)
    Flag_Com_Direction_ly                    0x20000998   Data           4  scanfunction.o(.data)
    FW_Direction_ly                          0x2000099c   Data           4  scanfunction.o(.data)
    FY_Direction_ly                          0x200009a0   Data           4  scanfunction.o(.data)
    FY_ScanAngleRang_ly                      0x200009a4   Data           4  scanfunction.o(.data)
    FY_Scan_Zhixing_ly                       0x200009a8   Data           4  scanfunction.o(.data)
    Time_Long_ly                             0x200009ac   Data           4  scanfunction.o(.data)
    step_design_set_ly                       0x200009b0   Data           4  scanfunction.o(.data)
    Start_cnt                                0x200009b4   Data           1  scanfunction.o(.data)
    watch_Scan_cnt                           0x200009b6   Data           2  scanfunction.o(.data)
    Test_Scan_Time                           0x200009b8   Data           1  scanfunction.o(.data)
    Scan_FW_Zero                             0x200009bc   Data           4  scanfunction.o(.data)
    Scan_FY_Zero                             0x200009c0   Data           4  scanfunction.o(.data)
    SCAN_POINT_FLAG                          0x200009c4   Data           1  scanfunction.o(.data)
    KongJianZhiXiang_FWLY1                   0x200009c8   Data           4  scanfunction.o(.data)
    ZhiXiang_Complete_FlagLY1                0x200009cc   Data           1  scanfunction.o(.data)
    KongJianZhiXiang_FYLY1                   0x200009d0   Data           4  scanfunction.o(.data)
    ScanFunction_Number                      0x200009d4   Data           2  scanfunction.o(.data)
    K_ADDA                                   0x200009d8   Data           4  stm32f4xx_it.o(.data)
    K_Sweep_Freq                             0x200009dc   Data           4  stm32f4xx_it.o(.data)
    DianLiu_FW                               0x200009e0   Data           4  stm32f4xx_it.o(.data)
    DianLiu_FY                               0x200009e4   Data           4  stm32f4xx_it.o(.data)
    WD_FY                                    0x200009e8   Data           4  stm32f4xx_it.o(.data)
    WD_FW                                    0x200009ec   Data           4  stm32f4xx_it.o(.data)
    PA_cnt                                   0x200009f0   Data           4  stm32f4xx_it.o(.data)
    BG_cnt                                   0x200009f4   Data           4  stm32f4xx_it.o(.data)
    tc                                       0x200009f8   Data           4  stm32f4xx_it.o(.data)
    GS_1                                     0x200009fc   Data           4  timer.o(.data)
    GS_2                                     0x20000a00   Data           4  timer.o(.data)
    GuanDaoWR_JiShu                          0x20000a04   Data           2  timer.o(.data)
    GS_Deadscale_Flag                        0x20000a08   Data           4  timer.o(.data)
    gs_ZHIXIANG1                             0x20000a0c   Data           4  timer.o(.data)
    gs_ZHIXIANG2                             0x20000a10   Data           4  timer.o(.data)
    gs_x_k                                   0x20000a14   Data           4  timer.o(.data)
    wMO_count                                0x20000a18   Data           4  timer.o(.data)
    GS_Trace_FW                              0x20000a1c   Data           4  timer.o(.data)
    GS_Trace_FY                              0x20000a20   Data           4  timer.o(.data)
    GS_FW_DEG                                0x20000a24   Data           4  timer.o(.data)
    GS_FY_DEG                                0x20000a28   Data           4  timer.o(.data)
    GS_HG_DEG                                0x20000a2c   Data           4  timer.o(.data)
    GS_TRACE_FW_DEG                          0x20000a30   Data           4  timer.o(.data)
    GS_TRACE_FY_DEG                          0x20000a34   Data           4  timer.o(.data)
    Speed_encode_FY                          0x20000a38   Data           4  timer.o(.data)
    Speed_encode_FW                          0x20000a3c   Data           4  timer.o(.data)
    miss_distance_X_float_sum                0x20000a40   Data           4  timer.o(.data)
    miss_distance_Y_float_sum                0x20000a44   Data           4  timer.o(.data)
    kp_guangshan                             0x20000a48   Data           4  timer.o(.data)
    kp_guangshan_Y                           0x20000a4c   Data           4  timer.o(.data)
    SF_Jixia                                 0x20000a50   Data           4  timer.o(.data)
    FW_location_JiTing_kp                    0x20000a54   Data           4  timer.o(.data)
    FW_location_JiTing_ki                    0x20000a58   Data           4  timer.o(.data)
    FW_location_JiTing_kd                    0x20000a5c   Data           4  timer.o(.data)
    FY_location_JiTing_kp                    0x20000a60   Data           4  timer.o(.data)
    FY_location_JiTing_ki                    0x20000a64   Data           4  timer.o(.data)
    FY_location_JiTing_kd                    0x20000a68   Data           4  timer.o(.data)
    Tuoluo_bit_float_k_2                     0x20000a6c   Data           4  timer.o(.data)
    k_11                                     0x20000a70   Data           4  timer.o(.data)
    GOY_K2                                   0x20000a74   Data           4  timer.o(.data)
    GOY_K1                                   0x20000a78   Data           4  timer.o(.data)
    GOY_K                                    0x20000a7c   Data           1  timer.o(.data)
    siqu_gs_flag                             0x20000a80   Data           4  timer.o(.data)
    tuoluo_c                                 0x20000a84   Data           4  timer.o(.data)
    tuoluo_wending_sudu_X1                   0x20000a88   Data           4  timer.o(.data)
    tuoluo_wending_sudu_error_X              0x20000a8c   Data           4  timer.o(.data)
    tuoluo_wending_sudu_error_Y              0x20000a90   Data           4  timer.o(.data)
    tuoluo_wending_sudu_X                    0x20000a94   Data           4  timer.o(.data)
    tuoluo_wending_sudu_Y                    0x20000a98   Data           4  timer.o(.data)
    tuoluo_wending_last_X                    0x20000a9c   Data           4  timer.o(.data)
    tuoluo_wending_last_Y                    0x20000aa0   Data           4  timer.o(.data)
    tuoluo_wending_ceshing_X                 0x20000aa4   Data           4  timer.o(.data)
    tuoluo_wending_ceshing_Y                 0x20000aa8   Data           4  timer.o(.data)
    tuoluo_A_X                               0x20000aac   Data           4  timer.o(.data)
    tuoluo_A_Y                               0x20000ab0   Data           4  timer.o(.data)
    tuoluo_C                                 0x20000ab4   Data           4  timer.o(.data)
    tuoluo_hz_X                              0x20000ab8   Data           4  timer.o(.data)
    tuoluo_hz_Y                              0x20000abc   Data           4  timer.o(.data)
    tuoluo_count                             0x20000ac0   Data           4  timer.o(.data)
    tuoluo_count_Y                           0x20000ac4   Data           4  timer.o(.data)
    FW_location_tuoluo_kp                    0x20000ac8   Data           4  timer.o(.data)
    FW_location_tuoluo_ki                    0x20000acc   Data           4  timer.o(.data)
    FW_location_tuoluo_kd                    0x20000ad0   Data           4  timer.o(.data)
    FY_location_tuoluo_kp                    0x20000ad4   Data           4  timer.o(.data)
    FY_location_tuoluo_ki                    0x20000ad8   Data           4  timer.o(.data)
    FY_location_tuoluo_kd                    0x20000adc   Data           4  timer.o(.data)
    FW_tuoluo_para                           0x20000ae0   Data           4  timer.o(.data)
    FY_tuoluo_para                           0x20000ae4   Data           4  timer.o(.data)
    FW_Tuoluo_first                          0x20000ae8   Data           4  timer.o(.data)
    FY_Tuoluo_first                          0x20000aec   Data           4  timer.o(.data)
    FW_Tuoluo_set                            0x20000af0   Data           4  timer.o(.data)
    FY_Tuoluo_set                            0x20000af4   Data           4  timer.o(.data)
    FW_Tuoluo_last                           0x20000af8   Data           4  timer.o(.data)
    FY_Tuoluo_last                           0x20000afc   Data           4  timer.o(.data)
    FW_Tuoluo_bit_float                      0x20000b00   Data           4  timer.o(.data)
    FY_Tuoluo_bit_float                      0x20000b04   Data           4  timer.o(.data)
    FW_tuoluo_loop_open_flag                 0x20000b08   Data           1  timer.o(.data)
    FY_tuoluo_loop_open_flag                 0x20000b09   Data           1  timer.o(.data)
    touluo_biaoduyingsu_Y                    0x20000b0c   Data           4  timer.o(.data)
    Tuoluo_bit_u32_Y                         0x20000b10   Data           4  timer.o(.data)
    Tuoluo_bit1_Y                            0x20000b14   Data           4  timer.o(.data)
    Tuoluo_bit2_Y                            0x20000b18   Data           4  timer.o(.data)
    Tuoluo_bit3_Y                            0x20000b1c   Data           4  timer.o(.data)
    Tuoluo_bit4_Y                            0x20000b20   Data           4  timer.o(.data)
    Tuoluo_bit5_Y                            0x20000b24   Data           4  timer.o(.data)
    Tuoluo_bit_int_Y                         0x20000b28   Data           4  timer.o(.data)
    Tuoluo_temperature_u16_Y                 0x20000b2c   Data           2  timer.o(.data)
    Tuoluo_temperature1_Y                    0x20000b2e   Data           2  timer.o(.data)
    Tuoluo_temperature2_Y                    0x20000b30   Data           2  timer.o(.data)
    Tuoluo_temperature_int_Y                 0x20000b34   Data           4  timer.o(.data)
    Tuoluo_temperature_float_Y               0x20000b38   Data           4  timer.o(.data)
    touluo_biaoduyingsu                      0x20000b3c   Data           4  timer.o(.data)
    Tuoluo_bit_u32                           0x20000b40   Data           4  timer.o(.data)
    Tuoluo_bit1                              0x20000b44   Data           4  timer.o(.data)
    Tuoluo_bit2                              0x20000b48   Data           4  timer.o(.data)
    Tuoluo_bit3                              0x20000b4c   Data           4  timer.o(.data)
    Tuoluo_bit4                              0x20000b50   Data           4  timer.o(.data)
    Tuoluo_bit5                              0x20000b54   Data           4  timer.o(.data)
    Tuoluo_bit_int                           0x20000b58   Data           4  timer.o(.data)
    Tuoluo_temperature_u16                   0x20000b5c   Data           2  timer.o(.data)
    Tuoluo_temperature1                      0x20000b5e   Data           2  timer.o(.data)
    Tuoluo_temperature2                      0x20000b60   Data           2  timer.o(.data)
    Tuoluo_temperature_int                   0x20000b64   Data           4  timer.o(.data)
    Tuoluo_temperature_float                 0x20000b68   Data           4  timer.o(.data)
    SF_touluo_i                              0x20000b6c   Data           1  timer.o(.data)
    count_f                                  0x20000b6d   Data           1  timer.o(.data)
    FY_Difference                            0x20000b70   Data           4  timer.o(.data)
    k_count_Y                                0x20000b74   Data           2  timer.o(.data)
    FY_encoder_degrees_First                 0x20000b78   Data           4  timer.o(.data)
    FW_encoder_degrees_First                 0x20000b7c   Data           4  timer.o(.data)
    FW_encoder_degrees_Second                0x20000b80   Data           4  timer.o(.data)
    FW_Difference                            0x20000b84   Data           4  timer.o(.data)
    k_count                                  0x20000b88   Data           2  timer.o(.data)
    FW                                       0x20000b8a   Data           1  timer.o(.data)
    FY                                       0x20000b8b   Data           1  timer.o(.data)
    temperature_liyanjun1                    0x20000b8c   Data           4  timer.o(.data)
    temperature_liyanjun2                    0x20000b90   Data           4  timer.o(.data)
    du_read_Currente                         0x20000b94   Data           4  timer.o(.data)
    du_read_temperature                      0x20000b98   Data           4  timer.o(.data)
    biao_zhi                                 0x20000b9c   Data           1  timer.o(.data)
    counter1                                 0x20000b9e   Data           2  timer.o(.data)
    counter2                                 0x20000ba0   Data           2  timer.o(.data)
    counter_data                             0x20000ba2   Data           2  timer.o(.data)
    counter_j                                0x20000ba4   Data           2  timer.o(.data)
    FW_zero_degree1_fu                       0x20000ba8   Data           4  timer.o(.data)
    FY_zero_degree1_zheng                    0x20000bac   Data           4  timer.o(.data)
    RMS2_weihudu_X                           0x20000bb0   Data           4  timer.o(.data)
    RMS2_weihudu_Y                           0x20000bb4   Data           4  timer.o(.data)
    RMS2_bianmaqi_X                          0x20000bb8   Data           4  timer.o(.data)
    RMS2_bianmaqi_Y                          0x20000bbc   Data           4  timer.o(.data)
    JingGenZong_Err                          0x20000bc0   Data           1  timer.o(.data)
    JingGenZong_Flag                         0x20000bc1   Data           1  timer.o(.data)
    FW_light_para                            0x20000bc2   Data           1  timer.o(.data)
    FY_light_para                            0x20000bc3   Data           1  timer.o(.data)
    stabilize_type_select                    0x20000bc4   Data           1  timer.o(.data)
    stabilize_axis_select                    0x20000bc5   Data           1  timer.o(.data)
    FY_location_para                         0x20000bc6   Data           1  timer.o(.data)
    FW_location_para                         0x20000bc7   Data           1  timer.o(.data)
    FY_location_para_set                     0x20000bc8   Data           1  timer.o(.data)
    FW_location_para_set                     0x20000bc9   Data           1  timer.o(.data)
    FW_pre_lvbo                              0x20000bcc   Data           4  timer.o(.data)
    FY_pre_lvbo                              0x20000bd0   Data           4  timer.o(.data)
    FW_lowpass                               0x20000bd4   Data           4  timer.o(.data)
    FY_lowpass                               0x20000bd8   Data           4  timer.o(.data)
    FW_wending_qiankui_lvbo                  0x20000bdc   Data           4  timer.o(.data)
    FY_wending_qiankui_lvbo                  0x20000be0   Data           4  timer.o(.data)
    FW_track_qiankui_lvbo                    0x20000be4   Data           4  timer.o(.data)
    FY_track_qiankui_lvbo                    0x20000be8   Data           4  timer.o(.data)
    FW_wending_yijie_tao                     0x20000bec   Data           4  timer.o(.data)
    FW_wending_yijie_T                       0x20000bf0   Data           4  timer.o(.data)
    FY_wending_yijie_tao                     0x20000bf4   Data           4  timer.o(.data)
    FY_wending_yijie_T                       0x20000bf8   Data           4  timer.o(.data)
    FW_wending_erjie_tao                     0x20000bfc   Data           4  timer.o(.data)
    FW_wending_erjie_T                       0x20000c00   Data           4  timer.o(.data)
    FY_wending_erjie_tao                     0x20000c04   Data           4  timer.o(.data)
    FY_wending_erjie_T                       0x20000c08   Data           4  timer.o(.data)
    FW_lowpass_servo                         0x20000c0c   Data           4  timer.o(.data)
    FY_lowpass_servo                         0x20000c10   Data           4  timer.o(.data)
    FW_track_yijie_tao_servo                 0x20000c14   Data           4  timer.o(.data)
    FW_track_yijie_T_servo                   0x20000c18   Data           4  timer.o(.data)
    FY_track_yijie_tao_servo                 0x20000c1c   Data           4  timer.o(.data)
    FY_track_yijie_T_servo                   0x20000c20   Data           4  timer.o(.data)
    FW_track_erjie_tao_servo                 0x20000c24   Data           4  timer.o(.data)
    FW_track_erjie_T_servo                   0x20000c28   Data           4  timer.o(.data)
    FY_track_erjie_tao_servo                 0x20000c2c   Data           4  timer.o(.data)
    FY_track_erjie_T_servo                   0x20000c30   Data           4  timer.o(.data)
    accelerate_limit                         0x20000c34   Data           4  timer.o(.data)
    velocity_limit_value_set                 0x20000c38   Data           4  timer.o(.data)
    FW_location_set                          0x20000c3c   Data           4  timer.o(.data)
    FY_location_set                          0x20000c40   Data           4  timer.o(.data)
    FW_location_last                         0x20000c44   Data           4  timer.o(.data)
    FY_location_last                         0x20000c48   Data           4  timer.o(.data)
    TEST_ReadDataFlag                        0x20000c4c   Data           2  timer.o(.data)
    TuoBa_fLAG                               0x20000c4e   Data           2  timer.o(.data)
    FPGA_READ_TEST_ADDR                      0x20000c50   Data           4  timer.o(.data)
    FY_encoder_l                             0x20000c54   Data           2  timer.o(.data)
    FY_encoder_h                             0x20000c56   Data           2  timer.o(.data)
    FY_encoder_u32                           0x20000c58   Data           4  timer.o(.data)
    FY_encoder_degrees                       0x20000c5c   Data           4  timer.o(.data)
    FY_encoder_degrees_lowpass               0x20000c60   Data           4  timer.o(.data)
    low_2bit_FY                              0x20000c64   Data           1  timer.o(.data)
    FW_encoder_l                             0x20000c66   Data           2  timer.o(.data)
    FW_encoder_h                             0x20000c68   Data           2  timer.o(.data)
    FW_encoder_u32                           0x20000c6c   Data           4  timer.o(.data)
    FW_encoder_degrees                       0x20000c70   Data           4  timer.o(.data)
    low_2bit_FW                              0x20000c74   Data           1  timer.o(.data)
    x_axis_velocity                          0x20000c78   Data           4  timer.o(.data)
    x_axis_velocity_supplement               0x20000c7c   Data           4  timer.o(.data)
    x_axis_velocity_float                    0x20000c80   Data           4  timer.o(.data)
    x_axis_velocity_1msdistance              0x20000c84   Data           4  timer.o(.data)
    x_axis_velocity_1msdistance_sum          0x20000c88   Data           4  timer.o(.data)
    y_axis_velocity                          0x20000c8c   Data           4  timer.o(.data)
    y_axis_velocity_supplement               0x20000c90   Data           4  timer.o(.data)
    y_axis_velocity_float                    0x20000c94   Data           4  timer.o(.data)
    y_axis_velocity_1msdistance              0x20000c98   Data           4  timer.o(.data)
    y_axis_velocity_1msdistance_sum          0x20000c9c   Data           4  timer.o(.data)
    x_axis_velocity_float_ly                 0x20000ca0   Data           4  timer.o(.data)
    y_axis_velocity_float_ly                 0x20000ca4   Data           4  timer.o(.data)
    z_axis_velocity                          0x20000ca8   Data           4  timer.o(.data)
    z_axis_velocity_supplement               0x20000cac   Data           4  timer.o(.data)
    z_axis_velocity_float                    0x20000cb0   Data           4  timer.o(.data)
    z_axis_velocity_1msdistance              0x20000cb4   Data           4  timer.o(.data)
    z_axis_velocity_1msdistance_sum          0x20000cb8   Data           4  timer.o(.data)
    x_axis_accelerated                       0x20000cbc   Data           4  timer.o(.data)
    x_axis_accelerated_supplement            0x20000cc0   Data           4  timer.o(.data)
    x_axis_accelerated_float                 0x20000cc4   Data           4  timer.o(.data)
    y_axis_accelerated                       0x20000cc8   Data           4  timer.o(.data)
    y_axis_accelerated_supplement            0x20000ccc   Data           4  timer.o(.data)
    y_axis_accelerated_float                 0x20000cd0   Data           4  timer.o(.data)
    z_axis_accelerated                       0x20000cd4   Data           4  timer.o(.data)
    z_axis_accelerated_supplement            0x20000cd8   Data           4  timer.o(.data)
    z_axis_accelerated_float                 0x20000cdc   Data           4  timer.o(.data)
    roll_attitude                            0x20000ce0   Data           4  timer.o(.data)
    roll_attitude_supplement                 0x20000ce4   Data           4  timer.o(.data)
    roll_attitude_float                      0x20000ce8   Data           4  timer.o(.data)
    roll_attitude_float_ly                   0x20000cec   Data           4  timer.o(.data)
    pitch_attitude                           0x20000cf0   Data           4  timer.o(.data)
    pitch_attitude_supplement                0x20000cf4   Data           4  timer.o(.data)
    pitch_attitude_float                     0x20000cf8   Data           4  timer.o(.data)
    pitch_attitude_float_ly                  0x20000cfc   Data           4  timer.o(.data)
    roll_attitude_before                     0x20000d00   Data           4  timer.o(.data)
    pitch_attitude_before                    0x20000d04   Data           4  timer.o(.data)
    yaw_attitude                             0x20000d08   Data           4  timer.o(.data)
    yaw_attitude_supplement                  0x20000d0c   Data           4  timer.o(.data)
    yaw_attitude_float                       0x20000d10   Data           4  timer.o(.data)
    yaw_attitude_float_ly                    0x20000d14   Data           4  timer.o(.data)
    yaw_angle_slave                          0x20000d18   Data           4  timer.o(.data)
    yaw_angle_float_slave                    0x20000d1c   Data           4  timer.o(.data)
    pitch_angle_slave                        0x20000d20   Data           4  timer.o(.data)
    pitch_angle_float_slave                  0x20000d24   Data           4  timer.o(.data)
    roll_angle_slave                         0x20000d28   Data           4  timer.o(.data)
    roll_angle_float_slave                   0x20000d2c   Data           4  timer.o(.data)
    yaw_angle_velocity_slave                 0x20000d30   Data           4  timer.o(.data)
    yaw_angle_velocity_float_slave           0x20000d34   Data           4  timer.o(.data)
    pitch_angle_velocity_slave               0x20000d38   Data           4  timer.o(.data)
    pitch_angle_velocity_float_slave         0x20000d3c   Data           4  timer.o(.data)
    roll_angle_velocity_slave                0x20000d40   Data           4  timer.o(.data)
    roll_angle_velocity_float_slave          0x20000d44   Data           4  timer.o(.data)
    X_axis_palstance                         0x20000d48   Data           4  timer.o(.data)
    X_axis_palstance_float                   0x20000d4c   Data           4  timer.o(.data)
    X_axis_palstance_float_off_set           0x20000d50   Data           4  timer.o(.data)
    X_axis_palstance_float_lowpass           0x20000d54   Data           4  timer.o(.data)
    X_axis_palstance_float_lowpass_out       0x20000d58   Data           4  timer.o(.data)
    low_pss_out_sanjie                       0x20000d5c   Data           4  timer.o(.data)
    Y_axis_palstance                         0x20000d60   Data           4  timer.o(.data)
    Y_axis_palstance_float                   0x20000d64   Data           4  timer.o(.data)
    Z_axis_palstance                         0x20000d68   Data           4  timer.o(.data)
    Z_axis_palstance_float                   0x20000d6c   Data           4  timer.o(.data)
    X_slave_1ms_distance                     0x20000d70   Data           4  timer.o(.data)
    X_slave_1ms_distance_PT                  0x20000d74   Data           4  timer.o(.data)
    X_slave_1ms_distance_SV                  0x20000d78   Data           4  timer.o(.data)
    X_slave_1ms_distance_sum                 0x20000d7c   Data           4  timer.o(.data)
    Y_slave_1ms_distance                     0x20000d80   Data           4  timer.o(.data)
    Y_slave_1ms_distance_sum                 0x20000d84   Data           4  timer.o(.data)
    Z_slave_1ms_distance                     0x20000d88   Data           4  timer.o(.data)
    Z_slave_1ms_distance_sum                 0x20000d8c   Data           4  timer.o(.data)
    IMU_bit_u32                              0x20000d90   Data           4  timer.o(.data)
    IMU_bit1                                 0x20000d94   Data           4  timer.o(.data)
    IMU_bit2                                 0x20000d98   Data           4  timer.o(.data)
    IMU_bit3                                 0x20000d9c   Data           4  timer.o(.data)
    IMU_bit4                                 0x20000da0   Data           4  timer.o(.data)
    IMU_bit5                                 0x20000da4   Data           4  timer.o(.data)
    IMU_bit_int                              0x20000da8   Data           4  timer.o(.data)
    IMU_bit_float                            0x20000dac   Data           4  timer.o(.data)
    IMU_bit_float_lowpass                    0x20000db0   Data           4  timer.o(.data)
    temp1_u16                                0x20000db4   Data           2  timer.o(.data)
    temp2_u16                                0x20000db6   Data           2  timer.o(.data)
    temp1_f                                  0x20000db8   Data           4  timer.o(.data)
    temp2_f                                  0x20000dbc   Data           4  timer.o(.data)
    miss_distance_judge_X                    0x20000dc0   Data           4  timer.o(.data)
    miss_distance_judge_Y                    0x20000dc4   Data           4  timer.o(.data)
    miss_distance_X                          0x20000dc8   Data           4  timer.o(.data)
    miss_distance_Y                          0x20000dcc   Data           4  timer.o(.data)
    miss_distance_Y_float_last               0x20000dd0   Data           4  timer.o(.data)
    miss_distance_X_float_last               0x20000dd4   Data           4  timer.o(.data)
    FY_miss_distance_sub                     0x20000dd8   Data           4  timer.o(.data)
    FW_miss_distance_sub                     0x20000ddc   Data           4  timer.o(.data)
    system_mode                              0x20000de0   Data           1  timer.o(.data)
    FY_location_loop_open_flag               0x20000de1   Data           1  timer.o(.data)
    FW_location_loop_open_flag               0x20000de2   Data           1  timer.o(.data)
    FW_light_loop_open_flag                  0x20000de3   Data           1  timer.o(.data)
    FY_light_loop_open_flag                  0x20000de4   Data           1  timer.o(.data)
    huiling_cnt                              0x20000de5   Data           1  timer.o(.data)
    huiling_once_flag                        0x20000de6   Data           1  timer.o(.data)
    timer_126ms_cnt                          0x20000de8   Data           4  timer.o(.data)
    scan_parameter_set_flag                  0x20000dec   Data           1  timer.o(.data)
    yushu                                    0x20000ded   Data           1  timer.o(.data)
    FY_sin_value                             0x20000df0   Data           4  timer.o(.data)
    FW_relative_degree                       0x20000df4   Data           4  timer.o(.data)
    FY_off_set                               0x20000df8   Data           4  timer.o(.data)
    FY_sin_value_fabs                        0x20000dfc   Data           4  timer.o(.data)
    FW_relative_rad                          0x20000e00   Data           4  timer.o(.data)
    FY_relative_rad                          0x20000e04   Data           4  timer.o(.data)
    matrix_a                                 0x20000e08   Data           4  timer.o(.data)
    matrix_b                                 0x20000e0c   Data           4  timer.o(.data)
    matrix_c                                 0x20000e10   Data           4  timer.o(.data)
    FW_simulated_target_motion               0x20000e14   Data           4  timer.o(.data)
    FY_simulated_target_motion               0x20000e18   Data           4  timer.o(.data)
    FW_pre_lowpss_filter                     0x20000e1c   Data           4  timer.o(.data)
    FY_pre_lowpss_filter                     0x20000e20   Data           4  timer.o(.data)
    step_cnt                                 0x20000e24   Data           4  timer.o(.data)
    FY_step_cnt                              0x20000e28   Data           4  timer.o(.data)
    FW_set_off                               0x20000e2c   Data           4  timer.o(.data)
    FY_set_off                               0x20000e30   Data           4  timer.o(.data)
    X_slave_1ms_distance_sum_last            0x20000e34   Data           4  timer.o(.data)
    X_slave_1ms_distance_sub                 0x20000e38   Data           4  timer.o(.data)
    Z_slave_1ms_distance_sum_last            0x20000e3c   Data           4  timer.o(.data)
    Z_slave_1ms_distance_sub                 0x20000e40   Data           4  timer.o(.data)
    X_speed_off_set                          0x20000e44   Data           4  timer.o(.data)
    Z_speed_off_set                          0x20000e48   Data           4  timer.o(.data)
    sin_cnt                                  0x20000e4c   Data           4  timer.o(.data)
    sin_value                                0x20000e50   Data           4  timer.o(.data)
    sin_value_sum                            0x20000e54   Data           4  timer.o(.data)
    sin_T_f                                  0x20000e58   Data           4  timer.o(.data)
    sin_T_u                                  0x20000e5c   Data           4  timer.o(.data)
    FY_qiankui_speed                         0x20000e60   Data           4  timer.o(.data)
    FW_revise_out_speed_acc                  0x20000e64   Data           4  timer.o(.data)
    FW_revise_out_speed_last                 0x20000e68   Data           4  timer.o(.data)
    FW_revise_out_volatge                    0x20000e6c   Data           4  timer.o(.data)
    FW_qiankui_speed                         0x20000e70   Data           4  timer.o(.data)
    FY_light_loop_revise_speed               0x20000e74   Data           4  timer.o(.data)
    FW_light_loop_revise_speed               0x20000e78   Data           4  timer.o(.data)
    FW_track_qiankui_speed                   0x20000e7c   Data           4  timer.o(.data)
    FY_track_qiankui_speed                   0x20000e80   Data           4  timer.o(.data)
    step_jishi                               0x20000e84   Data           4  timer.o(.data)
    output_open_flag                         0x20000e88   Data           1  timer.o(.data)
    FW_output_value_can                      0x20000e8c   Data           4  timer.o(.data)
    FW_output_angle_pa_last                  0x20000e90   Data           4  timer.o(.data)
    FY_output_angle_pa_last                  0x20000e94   Data           4  timer.o(.data)
    FW_output_angle_pa_now                   0x20000e98   Data           4  timer.o(.data)
    FY_output_angle_pa_now                   0x20000e9c   Data           4  timer.o(.data)
    FW_output_value_can_sub                  0x20000ea0   Data           4  timer.o(.data)
    velocity_limit_value                     0x20000ea4   Data           4  timer.o(.data)
    FW_limit_vel_value                       0x20000ea8   Data           4  timer.o(.data)
    FY_limit_vel_value                       0x20000eac   Data           4  timer.o(.data)
    global_FW_position_piror                 0x20000eb0   Data           4  timer.o(.data)
    global_FY_position_piror                 0x20000eb4   Data           4  timer.o(.data)
    FW_chafen_speed                          0x20000eb8   Data           4  timer.o(.data)
    FY_chafen_speed                          0x20000ebc   Data           4  timer.o(.data)
    FW_send_array_select                     0x20000ec0   Data           1  timer.o(.data)
    FY_send_array_select                     0x20000ec1   Data           1  timer.o(.data)
    shiyanzhengfu                            0x20000ec4   Data           4  timer.o(.data)
    da_out                                   0x20000ec8   Data           4  timer.o(.data)
    FY_encoder_Flag                          0x20000ecc   Data           4  timer.o(.data)
    FW_encoder_Flag                          0x20000ed0   Data           4  timer.o(.data)
    GuangxianGuandao_Flag                    0x20000ed4   Data           4  timer.o(.data)
    FW_zero_degree_fu                        0x20000ed8   Data           4  timer.o(.data)
    FW_zero_degree_zheng                     0x20000edc   Data           4  timer.o(.data)
    FY_zero_degree                           0x20000ee0   Data           4  timer.o(.data)
    fpgaUpdateFlag                           0x20000ee4   Data           2  timer.o(.data)
    FW_BuJin_Time_Count                      0x20000ee8   Data           4  timer.o(.data)
    FW_BuJin_Flag                            0x20000eec   Data           4  timer.o(.data)
    FW_BuJin_LiangCheng_Degree               0x20000ef0   Data           4  timer.o(.data)
    FW_BuJin_Time                            0x20000ef4   Data           4  timer.o(.data)
    FW_BuJin_SuDu                            0x20000ef8   Data           4  timer.o(.data)
    FW_BuJin_Count                           0x20000efc   Data           4  timer.o(.data)
    FW_BuJin_degree_Start                    0x20000f00   Data           4  timer.o(.data)
    FW_BuJin_degree_out                      0x20000f04   Data           4  timer.o(.data)
    FW_BuJin_Direct                          0x20000f08   Data           4  timer.o(.data)
    FW_BuJin_limit                           0x20000f0c   Data           4  timer.o(.data)
    FW_BuJin_degree_step                     0x20000f10   Data           4  timer.o(.data)
    FY_BuJin_Flag                            0x20000f14   Data           4  timer.o(.data)
    FY_BuJin_Count                           0x20000f18   Data           4  timer.o(.data)
    FY_BuJin_LiangCheng_Degree               0x20000f1c   Data           4  timer.o(.data)
    FY_BuJin_Time                            0x20000f20   Data           4  timer.o(.data)
    FY_BuJin_SuDu                            0x20000f24   Data           4  timer.o(.data)
    FY_BuJin_degree_Start                    0x20000f28   Data           4  timer.o(.data)
    FY_BuJin_degree_out                      0x20000f2c   Data           4  timer.o(.data)
    FY_BuJin_Direct                          0x20000f30   Data           4  timer.o(.data)
    FY_BuJin_limit                           0x20000f34   Data           4  timer.o(.data)
    FY_BuJin_degree_step                     0x20000f38   Data           4  timer.o(.data)
    step_open_flag                           0x20000f3c   Data           1  timer.o(.data)
    diaoyong_cnt                             0x20000f40   Data           4  timer.o(.data)
    step_design_set                          0x20000f44   Data           4  timer.o(.data)
    step_design_set_prepass                  0x20000f48   Data           4  timer.o(.data)
    cnt_Step                                 0x20000f4c   Data           4  timer.o(.data)
    Time_Long                                0x20000f50   Data           4  timer.o(.data)
    ScanAngleRang                            0x20000f54   Data           4  timer.o(.data)
    FY_ScanAngleRang                         0x20000f58   Data           4  timer.o(.data)
    FW_ScanStepLength                        0x20000f5c   Data           4  timer.o(.data)
    Scan_StepCount                           0x20000f60   Data           4  timer.o(.data)
    FW_Scan_StartAngle                       0x20000f64   Data           4  timer.o(.data)
    FY_Scan_StartAngle                       0x20000f68   Data           4  timer.o(.data)
    Scan_Direction                           0x20000f6c   Data           4  timer.o(.data)
    FW_Scan_StopAngle                        0x20000f70   Data           4  timer.o(.data)
    FW_Direction                             0x20000f74   Data           4  timer.o(.data)
    huanxiangzheng_flag                      0x20000f78   Data           4  timer.o(.data)
    FY_Direction                             0x20000f7c   Data           4  timer.o(.data)
    Flag_Com_Direction                       0x20000f80   Data           4  timer.o(.data)
    Scan_Number                              0x20000f84   Data           1  timer.o(.data)
    Give_Scan_Number                         0x20000f85   Data           1  timer.o(.data)
    Cha                                      0x20000f88   Data           4  timer.o(.data)
    FW_encoder_degrees_lowpass               0x20000f8c   Data           4  timer.o(.data)
    Send                                     0x20000f90   Data           4  timer.o(.data)
    jisuan_TIME                              0x20000f94   Data           4  timer.o(.data)
    Time_LY                                  0x20000f98   Data           4  timer.o(.data)
    FW_yunsu_sudu                            0x20000f9c   Data           4  timer.o(.data)
    FW_yunsu_sudu_1                          0x20000fa0   Data           4  timer.o(.data)
    FY_yunsu_sudu_1                          0x20000fa4   Data           4  timer.o(.data)
    Old_yunsu                                0x20000fa8   Data           4  timer.o(.data)
    yunsu_cnt                                0x20000fac   Data           4  timer.o(.data)
    FY_yunsu_sudu                            0x20000fb0   Data           4  timer.o(.data)
    MaiChong_cnt                             0x20000fb4   Data           4  timer.o(.data)
    fasong_cnt                               0x20000fb8   Data           4  timer.o(.data)
    once_flag                                0x20000fbc   Data           4  timer.o(.data)
    FW_JueDui_StartAngle                     0x20000fc0   Data           4  timer.o(.data)
    LY_Flag                                  0x20000fc4   Data           4  timer.o(.data)
    WaiTong_CNT                              0x20000fc8   Data           4  timer.o(.data)
    WuCha                                    0x20000fcc   Data           4  timer.o(.data)
    watchi                                   0x20000fd0   Data           4  timer.o(.data)
    TX_watch                                 0x20000fd4   Data           4  timer.o(.data)
    Ma_watch                                 0x20000fd8   Data           4  timer.o(.data)
    watchi1                                  0x20000fdc   Data           4  timer.o(.data)
    CaiJi_CNT                                0x20000fe0   Data           4  timer.o(.data)
    yunsu_zheng                              0x20000fe4   Data           4  timer.o(.data)
    yunsu_fu                                 0x20000fe8   Data           4  timer.o(.data)
    FW_yunsu_StopAngle                       0x20000fec   Data           4  timer.o(.data)
    FW_yunsu_StartAngle                      0x20000ff0   Data           4  timer.o(.data)
    TuoLuo_Flag                              0x20000ff4   Data           1  timer.o(.data)
    camera_arry_cnt                          0x20000ff8   Data           4  timer.o(.data)
    miss_distance_flag                       0x20000ffc   Data           1  timer.o(.data)
    miss_distance_cnt                        0x20000ffd   Data           1  timer.o(.data)
    chakan1                                  0x20000ffe   Data           1  timer.o(.data)
    chakan2                                  0x20000fff   Data           1  timer.o(.data)
    miss_distance_X_float_start1             0x20001000   Data           4  timer.o(.data)
    miss_distance_X_float_start2             0x20001004   Data           4  timer.o(.data)
    miss_distance_X_float_end1               0x20001008   Data           4  timer.o(.data)
    miss_distance_X_float_sub1               0x2000100c   Data           4  timer.o(.data)
    miss_distance_X_float_end2               0x20001010   Data           4  timer.o(.data)
    miss_distance_X_float_sub2               0x20001014   Data           4  timer.o(.data)
    miss_distance_X_float_end3               0x20001018   Data           4  timer.o(.data)
    miss_distance_X_float_sub3               0x2000101c   Data           4  timer.o(.data)
    miss_distance_X_float_end4               0x20001020   Data           4  timer.o(.data)
    miss_distance_X_float_sub4               0x20001024   Data           4  timer.o(.data)
    miss_distance_X_float_end5               0x20001028   Data           4  timer.o(.data)
    miss_distance_X_float_sub5               0x2000102c   Data           4  timer.o(.data)
    miss_distance_X_float_end6               0x20001030   Data           4  timer.o(.data)
    miss_distance_X_float_sub6               0x20001034   Data           4  timer.o(.data)
    miss_distance_X_float_end7               0x20001038   Data           4  timer.o(.data)
    miss_distance_X_float_sub7               0x2000103c   Data           4  timer.o(.data)
    miss_distance_X_float_end8               0x20001040   Data           4  timer.o(.data)
    miss_distance_X_float_sub8               0x20001044   Data           4  timer.o(.data)
    miss_distance_X_float_end9               0x20001048   Data           4  timer.o(.data)
    miss_distance_X_float_sub9               0x2000104c   Data           4  timer.o(.data)
    miss_distance_X_float_end10              0x20001050   Data           4  timer.o(.data)
    miss_distance_X_float_sub10              0x20001054   Data           4  timer.o(.data)
    miss_distance_X_float_endsum1            0x20001058   Data           4  timer.o(.data)
    miss_distance_X_float_ave                0x2000105c   Data           4  timer.o(.data)
    miss_distance_X_float_endsum2            0x20001060   Data           4  timer.o(.data)
    TEST_Change                              0x20001064   Data           4  timer.o(.data)
    step_sin_value                           0x20001068   Data           4  timer.o(.data)
    step_sin_cnt                             0x2000106c   Data           4  timer.o(.data)
    FW_step_chafen_speed                     0x20001070   Data           4  timer.o(.data)
    FY_step_chafen_speed                     0x20001074   Data           4  timer.o(.data)
    global_FW_step_piror                     0x20001078   Data           4  timer.o(.data)
    global_FY_step_piror                     0x2000107c   Data           4  timer.o(.data)
    TuoBa_Set_CNT                            0x20001080   Data           1  timer.o(.data)
    FW_encoder_TuoBa_Set                     0x20001084   Data           4  timer.o(.data)
    FY_encoder_TuoBa_Set                     0x20001088   Data           4  timer.o(.data)
    PT_CNT                                   0x2000108c   Data           4  timer.o(.data)
    PT_FY_miss_distance_sub                  0x20001090   Data           4  timer.o(.data)
    PT_miss_distance_Y_float_last            0x20001094   Data           4  timer.o(.data)
    PT_FW_miss_distance_sub                  0x20001098   Data           4  timer.o(.data)
    PT_miss_distance_X_float_last            0x2000109c   Data           4  timer.o(.data)
    slave_CNT                                0x200010a0   Data           2  timer.o(.data)
    slaveX_CNT                               0x200010a2   Data           2  timer.o(.data)
    z_int                                    0x200010a4   Data           4  timer.o(.data)
    Scan_cnt_ly                              0x200010a8   Data           4  timer.o(.data)
    YunSu_cnt_ly                             0x200010ac   Data           4  timer.o(.data)
    JieYue_cnt                               0x200010b0   Data           4  timer.o(.data)
    Change_flag_ly                           0x200010b4   Data           1  timer.o(.data)
    yaw_offset_val                           0x200010b8   Data           4  timer.o(.data)
    pitch_offset_val                         0x200010bc   Data           4  timer.o(.data)
    roll_offset_val                          0x200010c0   Data           4  timer.o(.data)
    ZJS_CNT                                  0x200010c4   Data           2  timer.o(.data)
    ly_zjs                                   0x200010c6   Data           2  timer.o(.data)
    CeShi_CNT                                0x200010c8   Data           2  timer.o(.data)
    miss_distance_X_float_LowpassBefore      0x200010cc   Data           4  timer.o(.data)
    miss_distance_Y_float_LowpassBefore      0x200010d0   Data           4  timer.o(.data)
    FW_miss_distance_lowpass_ly              0x200010d4   Data           4  timer.o(.data)
    FY_miss_distance_lowpass_ly              0x200010d8   Data           4  timer.o(.data)
    lowpass_flat                             0x200010dc   Data           1  timer.o(.data)
    ave_k                                    0x200010e0   Data           4  timer.o(.data)
    miss_Watch_CNT                           0x200010e4   Data           2  timer.o(.data)
    JiTing_Set_CNT                           0x200010e6   Data           1  timer.o(.data)
    JiTing_ZhongDuan_CNT                     0x200010e7   Data           1  timer.o(.data)
    FW_encoder_JiTing_Set                    0x200010e8   Data           4  timer.o(.data)
    FY_encoder_JiTinga_Set                   0x200010ec   Data           4  timer.o(.data)
    KongJianZhiXiang_CNT                     0x200010f0   Data           2  timer.o(.data)
    KongJianZhiXiang_FW                      0x200010f4   Data           4  timer.o(.data)
    KongJianZhiXiang_FY                      0x200010f8   Data           4  timer.o(.data)
    ZhiXiang_Complete_Flag                   0x200010fc   Data           2  timer.o(.data)
    GuiLingFlag                              0x200010fe   Data           1  timer.o(.data)
    FW_Xian_Left                             0x200010ff   Data           1  timer.o(.data)
    FW_Xian_Right                            0x20001100   Data           1  timer.o(.data)
    FW_LY_CNT                                0x20001104   Data           4  timer.o(.data)
    last_position_flag                       0x20001108   Data           1  timer.o(.data)
    GXKJ_FW                                  0x2000110c   Data           4  timer.o(.data)
    GXKJ_FY                                  0x20001110   Data           4  timer.o(.data)
    Test_XiangWei                            0x20001114   Data           1  timer.o(.data)
    start_flat                               0x20001115   Data           1  timer.o(.data)
    start_CNT                                0x20001116   Data           1  timer.o(.data)
    Position_begin                           0x20001118   Data           4  timer.o(.data)
    Encoder_Start                            0x2000111c   Data           4  timer.o(.data)
    GD_angle                                 0x20001120   Data           4  timer.o(.data)
    FW_Space                                 0x20001124   Data           4  timer.o(.data)
    FY_Space                                 0x20001128   Data           4  timer.o(.data)
    v_zhixiang_num_zero                      0x2000112c   Data           4  timer.o(.data)
    FY_OFSET                                 0x20001130   Data           4  timer.o(.data)
    FW_OFSET                                 0x20001134   Data           4  timer.o(.data)
    Change_FW_ki                             0x20001138   Data           4  timer.o(.data)
    Change_limit                             0x2000113c   Data           4  timer.o(.data)
    yaw_attitude_change                      0x20001140   Data           4  timer.o(.data)
    ly_GD_flag                               0x20001144   Data           1  timer.o(.data)
    ZhenPin                                  0x20001148   Data           4  timer.o(.data)
    OutSpeedCnt                              0x2000114c   Data           2  timer.o(.data)
    CntFW                                    0x2000114e   Data           2  timer.o(.data)
    SpeedNowFW                               0x20001150   Data           4  timer.o(.data)
    MaxPosition                              0x20001154   Data           4  timer.o(.data)
    MinPosition                              0x20001158   Data           4  timer.o(.data)
    OutSpeedFrequency                        0x2000115c   Data           4  timer.o(.data)
    OutCount                                 0x20001160   Data           2  timer.o(.data)
    FrequencyCnt                             0x20001162   Data           2  timer.o(.data)
    OutSpeedAmp                              0x20001164   Data           4  timer.o(.data)
    Camera_Config_cnt                        0x20001168   Data           1  timer.o(.data)
    Camer_Set_CNT                            0x20001169   Data           1  timer.o(.data)
    FW_Choose_Mode                           0x2000116a   Data           1  timer.o(.data)
    FY_Choose_Mode                           0x2000116b   Data           1  timer.o(.data)
    FW_Speed_Position                        0x2000116c   Data           4  timer.o(.data)
    Test_ZhenPin_CNT                         0x20001170   Data           2  timer.o(.data)
    ZhenPin_1                                0x20001172   Data           2  timer.o(.data)
    ZhenPin_2                                0x20001174   Data           2  timer.o(.data)
    GS_Trace_flag                            0x20001178   Data           4  timer.o(.data)
    Mod_Exechange_Flag                       0x2000117c   Data           4  timer.o(.data)
    saopin_fuzhi                             0x20001180   Data           4  timer.o(.data)
    saopin_pinlv                             0x20001184   Data           4  timer.o(.data)
    saopin_pianzhi                           0x20001188   Data           4  timer.o(.data)
    EXTI_CNT                                 0x2000118c   Data           1  timer.o(.data)
    LY_flag_N                                0x2000118d   Data           1  timer.o(.data)
    A                                        0x2000118e   Data           1  timer.o(.data)
    a_i                                      0x20001190   Data           2  timer.o(.data)
    Write_485_CNT                            0x20001192   Data           2  timer.o(.data)
    FY_encoder_quzhi                         0x20001194   Data           4  timer.o(.data)
    usart_5_num                              0x20001198   Data           1  timer.o(.data)
    usart_count1                             0x20001199   Data           1  timer.o(.data)
    ltou_true                                0x2000119c   Data           4  timer.o(.data)
    lwei_true                                0x200011a0   Data           4  timer.o(.data)
    lhe_true                                 0x200011a4   Data           4  timer.o(.data)
    zhenjishu_last                           0x200011a8   Data           4  timer.o(.data)
    Gyro_InterruptCnt1                       0x200011ac   Data           4  timer.o(.data)
    Gyro_InterruptCnt2                       0x200011b0   Data           4  timer.o(.data)
    Gyro_InterruptCnt3                       0x200011b4   Data           4  timer.o(.data)
    Gyro_InterruptCnt4                       0x200011b8   Data           4  timer.o(.data)
    Gyro_InterruptTrue                       0x200011bc   Data           4  timer.o(.data)
    x1_axis_velocity_float                   0x200011c0   Data           4  timer.o(.data)
    y1_axis_velocity_float                   0x200011c4   Data           4  timer.o(.data)
    z1_axis_velocity_float                   0x200011c8   Data           4  timer.o(.data)
    count_Test_1                             0x200011cc   Data           4  timer.o(.data)
    count_Test_2                             0x200011d0   Data           4  timer.o(.data)
    x_axis_velocity_1msdistance_sum1         0x200011d4   Data           4  timer.o(.data)
    aa_test                                  0x200011d8   Data           4  timer.o(.data)
    touluo_InterruptCnt1                     0x200011dc   Data           4  timer.o(.data)
    touluo_InterruptCnt2                     0x200011e0   Data           4  timer.o(.data)
    touluo_InterruptCnt3                     0x200011e4   Data           4  timer.o(.data)
    touluo_InterruptTrue                     0x200011e8   Data           4  timer.o(.data)
    touluo_InterruptCnt1_Y                   0x200011ec   Data           4  timer.o(.data)
    touluo_InterruptCnt2_Y                   0x200011f0   Data           4  timer.o(.data)
    touluo_InterruptCnt3_Y                   0x200011f4   Data           4  timer.o(.data)
    touluo_InterruptTrue_Y                   0x200011f8   Data           4  timer.o(.data)
    YunSu_Direction_ly                       0x200011fc   Data           4  yunsufunction.o(.data)
    FW_YunSu_StopAngle_ly                    0x20001200   Data           4  yunsufunction.o(.data)
    FW_YunSu_StartAngle_ly                   0x20001204   Data           4  yunsufunction.o(.data)
    YunSuAngleRang_ly                        0x20001208   Data           4  yunsufunction.o(.data)
    Flag_YunSu_Direction_ly                  0x2000120c   Data           4  yunsufunction.o(.data)
    FW_YunSu_Direction_ly                    0x20001210   Data           4  yunsufunction.o(.data)
    FY_YunSu_Direction_ly                    0x20001214   Data           4  yunsufunction.o(.data)
    YunSu_PanFangXiang                       0x20001218   Data           4  yunsufunction.o(.data)
    FY_YunSuAngleRang_ly                     0x2000121c   Data           4  yunsufunction.o(.data)
    FY_YunSu_Zhixing_ly                      0x20001220   Data           4  yunsufunction.o(.data)
    YunSu_Start_cnt                          0x20001224   Data           1  yunsufunction.o(.data)
    YunSu_Time_Long_ly                       0x20001228   Data           4  yunsufunction.o(.data)
    FW_YunSuStepLength_ly                    0x2000122c   Data           4  yunsufunction.o(.data)
    YunSu_step_design_set_ly                 0x20001230   Data           4  yunsufunction.o(.data)
    huanXiang_flag                           0x20001234   Data           4  yunsufunction.o(.data)
    X1_ly_cnt                                0x20001238   Data           4  yunsufunction.o(.data)
    X2_ly_cnt                                0x2000123c   Data           2  yunsufunction.o(.data)
    SpaceSetValueFY_Set                      0x20001240   Data           4  yunsufunction.o(.data)
    YunSu_POINT_FLAG                         0x20001244   Data           1  yunsufunction.o(.data)
    KongJianZhiXiang_FWYunSu                 0x20001248   Data           4  yunsufunction.o(.data)
    KongJianZhiXiang_FYYunSu                 0x2000124c   Data           4  yunsufunction.o(.data)
    ZhiXiang_Complete_FlagYunSu              0x20001250   Data           1  yunsufunction.o(.data)
    YunSu_FW_Zero                            0x20001254   Data           4  yunsufunction.o(.data)
    YunSu_FY_Zero                            0x20001258   Data           4  yunsufunction.o(.data)
    YunSuFunction_Number                     0x2000125c   Data           2  yunsufunction.o(.data)
    FPGA_485_ADDR                            0x20001260   Data           4  fy_485.o(.data)
    Mode_Chose                               0x20001264   Data           1  fy_485.o(.data)
    FY_Target_Position                       0x20001268   Data           4  fy_485.o(.data)
    FY_Speed_Position                        0x2000126c   Data           4  fy_485.o(.data)
    Buff_Target                              0x20001270   Data           8  fy_485.o(.data)
    Voltage                                  0x20001278   Data           4  fy_485.o(.data)
    Read_485Flag                             0x2000127c   Data           4  fy_485.o(.data)
    Buff_Speed                               0x20001280   Data           8  fy_485.o(.data)
    FY_485_encoder                           0x20001288   Data           2  fy_485.o(.data)
    FY_485_encoder_degrees                   0x2000128c   Data           4  fy_485.o(.data)
    FY_485_encoder_float                     0x20001290   Data           4  fy_485.o(.data)
    FY_485_Speed                             0x20001294   Data           2  fy_485.o(.data)
    FY_485_SpeedFloat                        0x20001298   Data           4  fy_485.o(.data)
    FW_angle_X                               0x2000129c   Data           4  saomiao.o(.data)
    FY_angle_Y                               0x200012a0   Data           4  saomiao.o(.data)
    FW_X                                     0x200012a4   Data           4  saomiao.o(.data)
    FY_Y                                     0x200012a8   Data           4  saomiao.o(.data)
    SF_i                                     0x200012ac   Data           1  usart.o(.data)
    SF_ADDR_tmp                              0x200012b0   Data           4  usart.o(.data)
    SF_COMFalg                               0x200012b4   Data           2  usart.o(.data)
    SF_COMFalg_H                             0x200012b6   Data           2  usart.o(.data)
    __stdout                                 0x200012b8   Data           4  usart.o(.data)
    USART_RX_BUF                             0x200012bc   Data           4  usart.o(.data)
    USART_RX_STA                             0x200012c0   Data           2  usart.o(.data)
    Res                                      0x200012c2   Data           1  usart.o(.data)
    cnt                                      0x200012c4   Data           2  usart.o(.data)
    GS_Suidong_Flag                          0x200012c8   Data           4  receive_send_data.o(.data)
    GS_Suidong_offset_FW                     0x200012cc   Data           4  receive_send_data.o(.data)
    GS_Suidong_offset_FY                     0x200012d0   Data           4  receive_send_data.o(.data)
    Suidong_jishu                            0x200012d4   Data           4  receive_send_data.o(.data)
    FY_Degree_GS_suidong                     0x200012d8   Data           4  receive_send_data.o(.data)
    FW_Degree_GS_suidong                     0x200012dc   Data           4  receive_send_data.o(.data)
    baochang                                 0x200012e0   Data           2  receive_send_data.o(.data)
    jieshoushijian                           0x200012e2   Data           2  receive_send_data.o(.data)
    zhenjishu                                0x200012e4   Data           4  receive_send_data.o(.data)
    genzon_biaozhi                           0x200012e8   Data           4  receive_send_data.o(.data)
    Four_Quadrant_bit_X                      0x200012ec   Data           4  receive_send_data.o(.data)
    Four_Quadrant_bit_Y                      0x200012f0   Data           4  receive_send_data.o(.data)
    Shangweiji_Pitch_Angle_Value_prepass     0x200012f4   Data           4  receive_send_data.o(.data)
    Tuoluo_bit_float12                       0x200012f8   Data           4  receive_send_data.o(.data)
    Tuoluo_bit_float11                       0x200012fc   Data           4  receive_send_data.o(.data)
    Tuoluo_bit_float_k                       0x20001300   Data           4  receive_send_data.o(.data)
    Tuoluo_bit_float_k1                      0x20001304   Data           4  receive_send_data.o(.data)
    Tuoluo_bit_float1                        0x20001308   Data           4  receive_send_data.o(.data)
    Tuoluo_bit_float_Y1                      0x2000130c   Data           4  receive_send_data.o(.data)
    Tuoluo_bit_float                         0x20001310   Data           4  receive_send_data.o(.data)
    Tuoluo_bit_float_Y                       0x20001314   Data           4  receive_send_data.o(.data)
    Tuoluo_bit_u32_X1                        0x20001318   Data           4  receive_send_data.o(.data)
    Tuoluo_bit_u32_Y1                        0x2000131c   Data           4  receive_send_data.o(.data)
    XunHuan_Ma                               0x20001320   Data           1  receive_send_data.o(.data)
    Receive_XunHuan_Ma_low                   0x20001321   Data           1  receive_send_data.o(.data)
    Receive_XunHuan_Ma_high                  0x20001322   Data           1  receive_send_data.o(.data)
    Send_XunHuan_Ma_TX                       0x20001323   Data           1  receive_send_data.o(.data)
    Receive_Direction_Angle_Value            0x20001324   Data           4  receive_send_data.o(.data)
    Receive_Pitch_Angle_Value                0x20001328   Data           4  receive_send_data.o(.data)
    Receive_IP                               0x2000132c   Data           1  receive_send_data.o(.data)
    Receive_suidong_IP                       0x2000132d   Data           1  receive_send_data.o(.data)
    Temp_32_Receive                          0x20001330   Data           4  receive_send_data.o(.data)
    cugenzongmoshi                           0x20001334   Data           4  receive_send_data.o(.data)
    cugenzongzhiling                         0x20001338   Data           4  receive_send_data.o(.data)
    Send_Direction_Angle_AnswerValue         0x2000133c   Data           4  receive_send_data.o(.data)
    Send_Pitch_Angle_AnswerValue             0x20001340   Data           4  receive_send_data.o(.data)
    FW_Jixia_tuoba_degrees                   0x20001344   Data           4  receive_send_data.o(.data)
    FY_Jixia_tuoba_degrees                   0x20001348   Data           4  receive_send_data.o(.data)
    FX_JixiaTuoluo_bit_float                 0x2000134c   Data           4  receive_send_data.o(.data)
    FY_JixiaTuoluo_bit_float                 0x20001350   Data           4  receive_send_data.o(.data)
    Send_Four_Quadrant_bit_X                 0x20001354   Data           4  receive_send_data.o(.data)
    Send_Four_Quadrant_bit_Y                 0x20001358   Data           4  receive_send_data.o(.data)
    Send_com_En                              0x2000135c   Data           4  receive_send_data.o(.data)
    Send_gai_Status                          0x20001360   Data           1  receive_send_data.o(.data)
    Send_mode                                0x20001361   Data           1  receive_send_data.o(.data)
    Send_Status                              0x20001362   Data           1  receive_send_data.o(.data)
    FY_Xianwei                               0x20001363   Data           1  receive_send_data.o(.data)
    Send_Err1                                0x20001364   Data           1  receive_send_data.o(.data)
    Send_Err2                                0x20001365   Data           1  receive_send_data.o(.data)
    Send_CAMERA_Err                          0x20001366   Data           1  receive_send_data.o(.data)
    POS_SP_SWITCH                            0x20001368   Data           4  receive_send_data.o(.data)
    Shangweiji_Data_len                      0x2000136c   Data           1  receive_send_data.o(.data)
    Shangweiji_Command                       0x2000136d   Data           1  receive_send_data.o(.data)
    Shangweiji_Direction_Angle_Value         0x20001370   Data           4  receive_send_data.o(.data)
    Shangweiji_Pitch_Angle_Value             0x20001374   Data           4  receive_send_data.o(.data)
    GS_Suidong_FW                            0x20001378   Data           4  receive_send_data.o(.data)
    GS_Suidong_chafen_FW                     0x2000137c   Data           4  receive_send_data.o(.data)
    GS_Suidong_chafen_FY                     0x20001380   Data           4  receive_send_data.o(.data)
    GS_Suidong_FW_before                     0x20001384   Data           4  receive_send_data.o(.data)
    GS_Suidong_FY_before                     0x20001388   Data           4  receive_send_data.o(.data)
    GS_Suidong_FY                            0x2000138c   Data           4  receive_send_data.o(.data)
    Shangweiji_Direction_Angle_prepass       0x20001390   Data           4  receive_send_data.o(.data)
    Shangweiji_Send_time                     0x20001394   Data           4  receive_send_data.o(.data)
    BaoJishu_Ma                              0x20001398   Data           1  receive_send_data.o(.data)
    Shineng_biaozhi                          0x20001399   Data           1  receive_send_data.o(.data)
    lici_biaozhi                             0x2000139a   Data           1  receive_send_data.o(.data)
    touluo_Cnt1                              0x2000139c   Data           4  receive_send_data.o(.data)
    touluo_Cnt2                              0x200013a0   Data           4  receive_send_data.o(.data)
    touluo_Cnt3                              0x200013a4   Data           4  receive_send_data.o(.data)
    touluo_Cnt4                              0x200013a8   Data           4  receive_send_data.o(.data)
    touluo_True                              0x200013ac   Data           4  receive_send_data.o(.data)
    MissKx                                   0x200013b0   Data           4  receive_send_data.o(.data)
    MissKy                                   0x200013b4   Data           4  receive_send_data.o(.data)
    tt                                       0x200013b8   Data           1  receive_send_data.o(.data)
    sinBodeCount                             0x200013c0   Data           4  deg_inversesolution.o(.data)
    sinStepAdd                               0x200013c4   Data           4  deg_inversesolution.o(.data)
    sinBodeNUM                               0x200013c8   Data           4  deg_inversesolution.o(.data)
    FW_Degree_GS                             0x200013d0   Data           8  deg_inversesolution.o(.data)
    FY_Degree_GS                             0x200013d8   Data           8  deg_inversesolution.o(.data)
    FW_Degree_Before                         0x200013e0   Data           8  deg_inversesolution.o(.data)
    FY_Degree_Before                         0x200013e8   Data           8  deg_inversesolution.o(.data)
    Deg_1_Before                             0x200013f0   Data           8  deg_inversesolution.o(.data)
    Deg_2_Before                             0x200013f8   Data           8  deg_inversesolution.o(.data)
    Deg_1_1                                  0x20001400   Data           4  deg_inversesolution.o(.data)
    Deg_2_1                                  0x20001404   Data           4  deg_inversesolution.o(.data)
    Deg_shang                                0x20001408   Data           8  deg_inversesolution.o(.data)
    jiao1                                    0x20001410   Data           8  deg_inversesolution.o(.data)
    jiao2                                    0x20001418   Data           8  deg_inversesolution.o(.data)
    jiao3                                    0x20001420   Data           8  deg_inversesolution.o(.data)
    jiao4                                    0x20001428   Data           8  deg_inversesolution.o(.data)
    jiao_1                                   0x20001430   Data           8  deg_inversesolution.o(.data)
    jiao_2                                   0x20001438   Data           8  deg_inversesolution.o(.data)
    g                                        0x20001440   Data           8  deg_inversesolution.o(.data)
    fai                                      0x20001448   Data           8  deg_inversesolution.o(.data)
    fangwei                                  0x20001450   Data           8  deg_inversesolution.o(.data)
    i_gs                                     0x20001458   Data           4  deg_inversesolution.o(.data)
    jianchashuzhi                            0x20001460   Data           8  deg_inversesolution.o(.data)
    Deadscale_Flag                           0x20001468   Data           4  deg_inversesolution.o(.data)
    check_flag                               0x2000146c   Data           4  deg_inversesolution.o(.data)
    Deg_count1                               0x20001470   Data           4  deg_inversesolution.o(.data)
    Deg_count2                               0x20001474   Data           4  deg_inversesolution.o(.data)
    degree1_before                           0x20001478   Data           8  deg_inversesolution.o(.data)
    degree2_before                           0x20001480   Data           8  deg_inversesolution.o(.data)
    GuanDao_Data                             0x20001488   Data           4  writeguandao.o(.data)
    GuanDao_InData                           0x2000148c   Data           4  writeguandao.o(.data)
    GuanDao_ShortData                        0x20001490   Data           2  writeguandao.o(.data)
    GunDao_cnt                               0x20001492   Data           2  writeguandao.o(.data)
    Sum_GuanDao                              0x20001494   Data           1  writeguandao.o(.data)
    WRGuanDao_CNT                            0x20001496   Data           2  writeguandao.o(.data)
    WeiDu                                    0x20001498   Data           4  writeguandao.o(.data)
    JingDu                                   0x2000149c   Data           4  writeguandao.o(.data)
    GaoDu                                    0x200014a0   Data           4  writeguandao.o(.data)
    SystemCoreClock                          0x200014b4   Data           4  system_stm32f4xx.o(.data)
    AHBPrescTable                            0x200014b8   Data          16  system_stm32f4xx.o(.data)
    AB_TXData                                0x200014c8   Data         100  aaa.o(.bss)
    AA_TXData                                0x2000152c   Data         100  aaa.o(.bss)
    AA_Data                                  0x20001590   Data         100  aaa.o(.bss)
    ControlFineTracking_Protocol             0x200015f4   Data          46  aaa.o(.bss)
    Read_JiaoYanHouShuJu                     0x20001622   Data          46  aaa.o(.bss)
    DaBaoFaSong_Data                         0x20001650   Data          41  aaa.o(.bss)
    a                                        0x20001679   Data          41  aaa.o(.bss)
    PZdataWX                                 0x200016a2   Data          38  aaa.o(.bss)
    AB_Data                                  0x200016c8   Data          50  aaa.o(.bss)
    PZdataRX                                 0x200016fa   Data          30  main.o(.bss)
    fsmTustinBz                              0x20001718   Data          32  fsmcompensator.o(.bss)
    fsmTustinBs                              0x20001738   Data          32  fsmcompensator.o(.bss)
    fsmTustinAz                              0x20001758   Data          32  fsmcompensator.o(.bss)
    fsmTustinAs                              0x20001778   Data          32  fsmcompensator.o(.bss)
    erFsm1                                   0x20001798   Data         288  fsmcompensator.o(.bss)
    euFsm1                                   0x200018b8   Data         288  fsmcompensator.o(.bss)
    erFsm2                                   0x200019d8   Data         288  fsmcompensator.o(.bss)
    euFsm2                                   0x20001af8   Data         288  fsmcompensator.o(.bss)
    fsmFilt1B0                               0x20001c18   Data          96  fsmcompensator.o(.bss)
    fsmFilt1B1                               0x20001c78   Data          96  fsmcompensator.o(.bss)
    fsmFilt1A1                               0x20001cd8   Data          96  fsmcompensator.o(.bss)
    fsmFilt2B0                               0x20001d38   Data          96  fsmcompensator.o(.bss)
    fsmFilt2B1                               0x20001d98   Data          96  fsmcompensator.o(.bss)
    fsmFilt2B2                               0x20001df8   Data          96  fsmcompensator.o(.bss)
    fsmFilt2A1                               0x20001e58   Data          96  fsmcompensator.o(.bss)
    fsmFilt2A2                               0x20001eb8   Data          96  fsmcompensator.o(.bss)
    fsmFilt3B0                               0x20001f18   Data          96  fsmcompensator.o(.bss)
    fsmFilt3B1                               0x20001f78   Data          96  fsmcompensator.o(.bss)
    fsmFilt3B2                               0x20001fd8   Data          96  fsmcompensator.o(.bss)
    fsmFilt3B3                               0x20002038   Data          96  fsmcompensator.o(.bss)
    fsmFilt3A1                               0x20002098   Data          96  fsmcompensator.o(.bss)
    fsmFilt3A2                               0x200020f8   Data          96  fsmcompensator.o(.bss)
    fsmFilt3A3                               0x20002158   Data          96  fsmcompensator.o(.bss)
    fsmTao1_wn                               0x200021b8   Data          96  fsmcompensator.o(.bss)
    fsmTao2_kesi                             0x20002218   Data          96  fsmcompensator.o(.bss)
    fsmT1                                    0x20002278   Data          96  fsmcompensator.o(.bss)
    fsmT2                                    0x200022d8   Data          96  fsmcompensator.o(.bss)
    saveData                                 0x20002338   Data         800  fsmcompensator.o(.bss)
    fsmTustinBz_servo                        0x20002658   Data          24  fsmcompensator_servo.o(.bss)
    fsmTustinBs_servo                        0x20002670   Data          24  fsmcompensator_servo.o(.bss)
    fsmTustinAz_servo                        0x20002688   Data          24  fsmcompensator_servo.o(.bss)
    fsmTustinAs_servo                        0x200026a0   Data          24  fsmcompensator_servo.o(.bss)
    erFsm1_servo                             0x200026b8   Data         240  fsmcompensator_servo.o(.bss)
    euFsm1_servo                             0x200027a8   Data         240  fsmcompensator_servo.o(.bss)
    erFsm2_servo                             0x20002898   Data         240  fsmcompensator_servo.o(.bss)
    euFsm2_servo                             0x20002988   Data         240  fsmcompensator_servo.o(.bss)
    fsmFilt1B0_servo                         0x20002a78   Data          80  fsmcompensator_servo.o(.bss)
    fsmFilt1B1_servo                         0x20002ac8   Data          80  fsmcompensator_servo.o(.bss)
    fsmFilt1A1_servo                         0x20002b18   Data          80  fsmcompensator_servo.o(.bss)
    fsmFilt2B0_servo                         0x20002b68   Data          80  fsmcompensator_servo.o(.bss)
    fsmFilt2B1_servo                         0x20002bb8   Data          80  fsmcompensator_servo.o(.bss)
    fsmFilt2B2_servo                         0x20002c08   Data          80  fsmcompensator_servo.o(.bss)
    fsmFilt2A1_servo                         0x20002c58   Data          80  fsmcompensator_servo.o(.bss)
    fsmFilt2A2_servo                         0x20002ca8   Data          80  fsmcompensator_servo.o(.bss)
    fsmTao1_wn_servo                         0x20002cf8   Data          80  fsmcompensator_servo.o(.bss)
    fsmTao2_kesi_servo                       0x20002d48   Data          80  fsmcompensator_servo.o(.bss)
    fsmT1_servo                              0x20002d98   Data          80  fsmcompensator_servo.o(.bss)
    fsmT2_servo                              0x20002de8   Data          80  fsmcompensator_servo.o(.bss)
    saveData_servo                           0x20002e38   Data         800  fsmcompensator_servo.o(.bss)
    RxCAN                                    0x20003158   Data          36  stm32f4xx_it.o(.bss)
    SF_TX_touluo_Data_Y                      0x2000317c   Data          10  timer.o(.bss)
    SF_RX_touluo_Data_Y                      0x20003186   Data          10  timer.o(.bss)
    SF_TX_touluo_Data                        0x20003190   Data          10  timer.o(.bss)
    SF_RX_touluo_Data                        0x2000319a   Data          10  timer.o(.bss)
    EncoderData                              0x200031a4   Data          24  timer.o(.bss)
    Encoder_Data                             0x200031bc   Data          24  timer.o(.bss)
    ab                                       0x200031d4   Data        2280  timer.o(.bss)
    read_usart2                              0x20003abc   Data         100  timer.o(.bss)
    read_usart1                              0x20003b20   Data          50  timer.o(.bss)
    read_usart3                              0x20003b52   Data          10  timer.o(.bss)
    read_usart4                              0x20003b5c   Data         200  timer.o(.bss)
    lvds_array1                              0x20003c24   Data         110  timer.o(.bss)
    lvds_array2                              0x20003c92   Data         110  timer.o(.bss)
    read_usart5                              0x20003d00   Data          20  timer.o(.bss)
    FW_send_array                            0x20003d14   Data          40  timer.o(.bss)
    FY_send_array                            0x20003d3c   Data          40  timer.o(.bss)
    CanShu_Read                              0x20003d64   Data          38  timer.o(.bss)
    Watch_CaiJi                              0x20003d8c   Data         880  timer.o(.bss)
    Ma_CaiJi                                 0x200040fc   Data         300  timer.o(.bss)
    Watch_MaiChong_Later                     0x20004228   Data         280  timer.o(.bss)
    camera_arry                              0x20004340   Data        4000  timer.o(.bss)
    watch_slave_X                            0x200052e0   Data        8000  timer.o(.bss)
    watch_slave_Z                            0x20007220   Data        8000  timer.o(.bss)
    ZhenJiShu_ly                             0x20009160   Data        1100  timer.o(.bss)
    zjs                                      0x200095ac   Data        1000  timer.o(.bss)
    miss_Watch                               0x20009994   Data        6000  timer.o(.bss)
    inAngle                                  0x2000b104   Data          12  timer.o(.bss)
    SpeedBode                                0x2000b110   Data         200  timer.o(.bss)
    Data_1_1                                 0x2000b1d8   Data        4000  rms2.o(.bss)
    Data_2                                   0x2000c178   Data        4000  rms2.o(.bss)
    SF_TXData                                0x2000d118   Data          34  usart.o(.bss)
    SF_Data                                  0x2000d13a   Data          34  usart.o(.bss)
    Receive_Data                             0x2000d15c   Data          30  receive_send_data.o(.bss)
    Receive_TXData                           0x2000d17a   Data          49  receive_send_data.o(.bss)
    Receive_DBJ_Data                         0x2000d1ab   Data          13  receive_send_data.o(.bss)
    Shangweiji_Data                          0x2000d1b8   Data          43  receive_send_data.o(.bss)
    WR_GuanDao                               0x2000d1e3   Data          27  writeguandao.o(.bss)
    __libspace_start                         0x2000d200   Data          96  libspace.o(.bss)
    __temporary_stack_top$libspace           0x2000d260   Data           0  libspace.o(.bss)



==============================================================================

Memory Map of the image

  Image Entry point : 0x08000189

  Load Region LR_IROM1 (Base: 0x08000000, Size: 0x0001b6d0, Max: 0x00080000, ABSOLUTE, COMPRESSED[0x0001a510])

    Execution Region ER_IROM1 (Exec base: 0x08000000, Load base: 0x08000000, Size: 0x0001a208, Max: 0x00080000, ABSOLUTE)

    Exec Addr    Load Addr    Size         Type   Attr      Idx    E Section Name        Object

    0x08000000   0x08000000   0x00000188   Data   RO         1119    RESET               startup_stm32f4xx.o
    0x08000188   0x08000188   0x00000008   Code   RO         1666  * !!!main             c_w.l(__main.o)
    0x08000190   0x08000190   0x00000034   Code   RO         2099    !!!scatter          c_w.l(__scatter.o)
    0x080001c4   0x080001c4   0x0000005a   Code   RO         2097    !!dczerorl2         c_w.l(__dczerorl2.o)
    0x0800021e   0x0800021e   0x00000002   PAD
    0x08000220   0x08000220   0x0000001c   Code   RO         2101    !!handler_zi        c_w.l(__scatter_zi.o)
    0x0800023c   0x0800023c   0x00000002   Code   RO         1968    .ARM.Collect$$libinit$$00000000  c_w.l(libinit.o)
    0x0800023e   0x0800023e   0x00000004   Code   RO         1973    .ARM.Collect$$libinit$$00000001  c_w.l(libinit2.o)
    0x08000242   0x08000242   0x00000000   Code   RO         1976    .ARM.Collect$$libinit$$00000004  c_w.l(libinit2.o)
    0x08000242   0x08000242   0x00000000   Code   RO         1979    .ARM.Collect$$libinit$$0000000A  c_w.l(libinit2.o)
    0x08000242   0x08000242   0x00000000   Code   RO         1981    .ARM.Collect$$libinit$$0000000C  c_w.l(libinit2.o)
    0x08000242   0x08000242   0x00000000   Code   RO         1983    .ARM.Collect$$libinit$$0000000E  c_w.l(libinit2.o)
    0x08000242   0x08000242   0x00000000   Code   RO         1986    .ARM.Collect$$libinit$$00000011  c_w.l(libinit2.o)
    0x08000242   0x08000242   0x00000000   Code   RO         1988    .ARM.Collect$$libinit$$00000013  c_w.l(libinit2.o)
    0x08000242   0x08000242   0x00000000   Code   RO         1990    .ARM.Collect$$libinit$$00000015  c_w.l(libinit2.o)
    0x08000242   0x08000242   0x00000000   Code   RO         1992    .ARM.Collect$$libinit$$00000017  c_w.l(libinit2.o)
    0x08000242   0x08000242   0x00000000   Code   RO         1994    .ARM.Collect$$libinit$$00000019  c_w.l(libinit2.o)
    0x08000242   0x08000242   0x00000000   Code   RO         1996    .ARM.Collect$$libinit$$0000001B  c_w.l(libinit2.o)
    0x08000242   0x08000242   0x00000000   Code   RO         1998    .ARM.Collect$$libinit$$0000001D  c_w.l(libinit2.o)
    0x08000242   0x08000242   0x00000000   Code   RO         2000    .ARM.Collect$$libinit$$0000001F  c_w.l(libinit2.o)
    0x08000242   0x08000242   0x00000000   Code   RO         2002    .ARM.Collect$$libinit$$00000021  c_w.l(libinit2.o)
    0x08000242   0x08000242   0x00000000   Code   RO         2004    .ARM.Collect$$libinit$$00000023  c_w.l(libinit2.o)
    0x08000242   0x08000242   0x00000000   Code   RO         2006    .ARM.Collect$$libinit$$00000025  c_w.l(libinit2.o)
    0x08000242   0x08000242   0x00000000   Code   RO         2010    .ARM.Collect$$libinit$$0000002C  c_w.l(libinit2.o)
    0x08000242   0x08000242   0x00000000   Code   RO         2012    .ARM.Collect$$libinit$$0000002E  c_w.l(libinit2.o)
    0x08000242   0x08000242   0x00000000   Code   RO         2014    .ARM.Collect$$libinit$$00000030  c_w.l(libinit2.o)
    0x08000242   0x08000242   0x00000000   Code   RO         2016    .ARM.Collect$$libinit$$00000032  c_w.l(libinit2.o)
    0x08000242   0x08000242   0x00000002   Code   RO         2017    .ARM.Collect$$libinit$$00000033  c_w.l(libinit2.o)
    0x08000244   0x08000244   0x00000002   Code   RO         2037    .ARM.Collect$$libshutdown$$00000000  c_w.l(libshutdown.o)
    0x08000246   0x08000246   0x00000000   Code   RO         2047    .ARM.Collect$$libshutdown$$00000002  c_w.l(libshutdown2.o)
    0x08000246   0x08000246   0x00000000   Code   RO         2049    .ARM.Collect$$libshutdown$$00000004  c_w.l(libshutdown2.o)
    0x08000246   0x08000246   0x00000000   Code   RO         2051    .ARM.Collect$$libshutdown$$00000006  c_w.l(libshutdown2.o)
    0x08000246   0x08000246   0x00000000   Code   RO         2054    .ARM.Collect$$libshutdown$$00000009  c_w.l(libshutdown2.o)
    0x08000246   0x08000246   0x00000000   Code   RO         2057    .ARM.Collect$$libshutdown$$0000000C  c_w.l(libshutdown2.o)
    0x08000246   0x08000246   0x00000000   Code   RO         2059    .ARM.Collect$$libshutdown$$0000000E  c_w.l(libshutdown2.o)
    0x08000246   0x08000246   0x00000000   Code   RO         2062    .ARM.Collect$$libshutdown$$00000011  c_w.l(libshutdown2.o)
    0x08000246   0x08000246   0x00000002   Code   RO         2063    .ARM.Collect$$libshutdown$$00000012  c_w.l(libshutdown2.o)
    0x08000248   0x08000248   0x00000000   Code   RO         1864    .ARM.Collect$$rtentry$$00000000  c_w.l(__rtentry.o)
    0x08000248   0x08000248   0x00000000   Code   RO         1935    .ARM.Collect$$rtentry$$00000002  c_w.l(__rtentry2.o)
    0x08000248   0x08000248   0x00000006   Code   RO         1947    .ARM.Collect$$rtentry$$00000004  c_w.l(__rtentry4.o)
    0x0800024e   0x0800024e   0x00000000   Code   RO         1937    .ARM.Collect$$rtentry$$00000009  c_w.l(__rtentry2.o)
    0x0800024e   0x0800024e   0x00000004   Code   RO         1938    .ARM.Collect$$rtentry$$0000000A  c_w.l(__rtentry2.o)
    0x08000252   0x08000252   0x00000000   Code   RO         1940    .ARM.Collect$$rtentry$$0000000C  c_w.l(__rtentry2.o)
    0x08000252   0x08000252   0x00000008   Code   RO         1941    .ARM.Collect$$rtentry$$0000000D  c_w.l(__rtentry2.o)
    0x0800025a   0x0800025a   0x00000002   Code   RO         1971    .ARM.Collect$$rtexit$$00000000  c_w.l(rtexit.o)
    0x0800025c   0x0800025c   0x00000000   Code   RO         2021    .ARM.Collect$$rtexit$$00000002  c_w.l(rtexit2.o)
    0x0800025c   0x0800025c   0x00000004   Code   RO         2022    .ARM.Collect$$rtexit$$00000003  c_w.l(rtexit2.o)
    0x08000260   0x08000260   0x00000006   Code   RO         2023    .ARM.Collect$$rtexit$$00000004  c_w.l(rtexit2.o)
    0x08000266   0x08000266   0x00000002   PAD
    0x08000268   0x08000268   0x00003504   Code   RO            2    .text               aaa.o
    0x0800376c   0x0800376c   0x00000204   Code   RO          142    .text               main.o
    0x08003970   0x08003970   0x000003dc   Code   RO          311    .text               can.o
    0x08003d4c   0x08003d4c   0x00001bdc   Code   RO          351    .text               elmo.o
    0x08005928   0x08005928   0x0000007c   Code   RO          435    .text               extiz.o
    0x080059a4   0x080059a4   0x000002a4   Code   RO          455    .text               fsmc.o
    0x08005c48   0x08005c48   0x00003c70   Code   RO          470    .text               fsmcompensator.o
    0x080098b8   0x080098b8   0x00001724   Code   RO          489    .text               fsmcompensator_servo.o
    0x0800afdc   0x0800afdc   0x00000334   Code   RO          533    .text               ioinit.o
    0x0800b310   0x0800b310   0x0000028c   Code   RO          552    .text               motoroutputposse.o
    0x0800b59c   0x0800b59c   0x0000017c   Code   RO          572    .text               pointfunction.o
    0x0800b718   0x0800b718   0x00001004   Code   RO          599    .text               positionloop.o
    0x0800c71c   0x0800c71c   0x00000b08   Code   RO          622    .text               servofunction.o
    0x0800d224   0x0800d224   0x000011f8   Code   RO          672    .text               stm32f4xx_it.o
    0x0800e41c   0x0800e41c   0x0000015c   Code   RO          693    .text               stmflash.o
    0x0800e578   0x0800e578   0x00004484   Code   RO          757    .text               timer.o
    0x080129fc   0x080129fc   0x00000200   Code   RO          949    .text               rms2.o
    0x08012bfc   0x08012bfc   0x000001cc   Code   RO          991    .text               saomiao.o
    0x08012dc8   0x08012dc8   0x000005c4   Code   RO         1025    .text               usart.o
    0x0801338c   0x0801338c   0x00001000   Code   RO         1052    .text               receive_send_data.o
    0x0801438c   0x0801438c   0x00000b50   Code   RO         1073    .text               deg_inversesolution.o
    0x08014edc   0x08014edc   0x0000018c   Code   RO         1097    .text               writeguandao.o
    0x08015068   0x08015068   0x00000040   Code   RO         1120    .text               startup_stm32f4xx.o
    0x080150a8   0x080150a8   0x000000e0   Code   RO         1125    .text               misc.o
    0x08015188   0x08015188   0x000009f0   Code   RO         1157    .text               stm32f4xx_can.o
    0x08015b78   0x08015b78   0x0000011c   Code   RO         1317    .text               stm32f4xx_exti.o
    0x08015c94   0x08015c94   0x000004bc   Code   RO         1333    .text               stm32f4xx_flash.o
    0x08016150   0x08016150   0x00000608   Code   RO         1349    .text               stm32f4xx_fsmc.o
    0x08016758   0x08016758   0x0000025c   Code   RO         1365    .text               stm32f4xx_gpio.o
    0x080169b4   0x080169b4   0x00000588   Code   RO         1477    .text               stm32f4xx_rcc.o
    0x08016f3c   0x08016f3c   0x0000008c   Code   RO         1559    .text               stm32f4xx_syscfg.o
    0x08016fc8   0x08016fc8   0x00000ca2   Code   RO         1575    .text               stm32f4xx_tim.o
    0x08017c6a   0x08017c6a   0x00000002   PAD
    0x08017c6c   0x08017c6c   0x0000042e   Code   RO         1591    .text               stm32f4xx_usart.o
    0x0801809a   0x0801809a   0x00000002   PAD
    0x0801809c   0x0801809c   0x00000210   Code   RO         1623    .text               system_stm32f4xx.o
    0x080182ac   0x080182ac   0x00000002   Code   RO         1658    .text               c_w.l(use_no_semi_2.o)
    0x080182ae   0x080182ae   0x00000006   Code   RO         1664    .text               c_w.l(heapauxi.o)
    0x080182b4   0x080182b4   0x00000002   Code   RO         1862    .text               c_w.l(use_no_semi.o)
    0x080182b6   0x080182b6   0x00000016   Code   RO         1865    .text               c_w.l(_rserrno.o)
    0x080182cc   0x080182cc   0x00000008   Code   RO         1952    .text               c_w.l(rt_errno_addr_intlibspace.o)
    0x080182d4   0x080182d4   0x00000008   Code   RO         1956    .text               c_w.l(libspace.o)
    0x080182dc   0x080182dc   0x0000004a   Code   RO         1959    .text               c_w.l(sys_stackheap_outer.o)
    0x08018326   0x08018326   0x00000012   Code   RO         1961    .text               c_w.l(exit.o)
    0x08018338   0x08018338   0x00000030   Code   RO         1899    i.__ARM_fpclassify  m_wm.l(fpclassify.o)
    0x08018368   0x08018368   0x00000026   Code   RO         1901    i.__ARM_fpclassifyf  m_wm.l(fpclassifyf.o)
    0x0801838e   0x0801838e   0x00000002   PAD
    0x08018390   0x08018390   0x00000118   Code   RO         1706    i.__hardfp_acosf    m_wm.l(acosf.o)
    0x080184a8   0x080184a8   0x0000012c   Code   RO         1732    i.__hardfp_asinf    m_wm.l(asinf.o)
    0x080185d4   0x080185d4   0x00000004   PAD
    0x080185d8   0x080185d8   0x000000c8   Code   RO         1770    i.__hardfp_cos      m_wm.l(cos.o)
    0x080186a0   0x080186a0   0x00000014   Code   RO         1794    i.__hardfp_fabs     m_wm.l(fabs.o)
    0x080186b4   0x080186b4   0x00000004   PAD
    0x080186b8   0x080186b8   0x000000c8   Code   RO         1814    i.__hardfp_sin      m_wm.l(sin.o)
    0x08018780   0x08018780   0x00000190   Code   RO         1826    i.__hardfp_sinf     m_wm.l(sinf.o)
    0x08018910   0x08018910   0x0000007a   Code   RO         1838    i.__hardfp_sqrt     m_wm.l(sqrt.o)
    0x0801898a   0x0801898a   0x00000006   PAD
    0x08018990   0x08018990   0x00000438   Code   RO         1920    i.__ieee754_rem_pio2  m_wm.l(rred.o)
    0x08018dc8   0x08018dc8   0x00000170   Code   RO         1882    i.__kernel_cos      m_wm.l(cos_i.o)
    0x08018f38   0x08018f38   0x000000f8   Code   RO         1917    i.__kernel_poly     m_wm.l(poly.o)
    0x08019030   0x08019030   0x00000130   Code   RO         1928    i.__kernel_sin      m_wm.l(sin_i.o)
    0x08019160   0x08019160   0x00000014   Code   RO         1886    i.__mathlib_dbl_infnan  m_wm.l(dunder.o)
    0x08019174   0x08019174   0x00000004   PAD
    0x08019178   0x08019178   0x00000020   Code   RO         1888    i.__mathlib_dbl_invalid  m_wm.l(dunder.o)
    0x08019198   0x08019198   0x00000020   Code   RO         1891    i.__mathlib_dbl_underflow  m_wm.l(dunder.o)
    0x080191b8   0x080191b8   0x00000006   Code   RO         1904    i.__mathlib_flt_infnan  m_wm.l(funder.o)
    0x080191be   0x080191be   0x00000002   PAD
    0x080191c0   0x080191c0   0x00000010   Code   RO         1906    i.__mathlib_flt_invalid  m_wm.l(funder.o)
    0x080191d0   0x080191d0   0x00000010   Code   RO         1909    i.__mathlib_flt_underflow  m_wm.l(funder.o)
    0x080191e0   0x080191e0   0x00000154   Code   RO         1925    i.__mathlib_rredf2  m_wm.l(rredf.o)
    0x08019334   0x08019334   0x00000018   Code   RO         1796    i.fabs              m_wm.l(fabs.o)
    0x0801934c   0x0801934c   0x0000003e   Code   RO         1852    i.sqrtf             m_wm.l(sqrtf.o)
    0x0801938a   0x0801938a   0x00000018   Code   RO         1668    x$fpl$basic         fz_wm.l(basic.o)
    0x080193a2   0x080193a2   0x00000002   PAD
    0x080193a4   0x080193a4   0x00000062   Code   RO         1670    x$fpl$d2f           fz_wm.l(d2f.o)
    0x08019406   0x08019406   0x00000002   PAD
    0x08019408   0x08019408   0x00000150   Code   RO         1672    x$fpl$dadd          fz_wm.l(daddsub_clz.o)
    0x08019558   0x08019558   0x00000018   Code   RO         1867    x$fpl$dcmpinf       fz_wm.l(dcmpi.o)
    0x08019570   0x08019570   0x000002b0   Code   RO         1679    x$fpl$ddiv          fz_wm.l(ddiv.o)
    0x08019820   0x08019820   0x00000078   Code   RO         1682    x$fpl$deqf          fz_wm.l(deqf.o)
    0x08019898   0x08019898   0x0000005e   Code   RO         1684    x$fpl$dfix          fz_wm.l(dfix.o)
    0x080198f6   0x080198f6   0x0000002e   Code   RO         1689    x$fpl$dflt          fz_wm.l(dflt_clz.o)
    0x08019924   0x08019924   0x00000026   Code   RO         1688    x$fpl$dfltu         fz_wm.l(dflt_clz.o)
    0x0801994a   0x0801994a   0x00000002   PAD
    0x0801994c   0x0801994c   0x00000078   Code   RO         1694    x$fpl$dleqf         fz_wm.l(dleqf.o)
    0x080199c4   0x080199c4   0x00000154   Code   RO         1696    x$fpl$dmul          fz_wm.l(dmul.o)
    0x08019b18   0x08019b18   0x0000009c   Code   RO         1869    x$fpl$dnaninf       fz_wm.l(dnaninf.o)
    0x08019bb4   0x08019bb4   0x0000000c   Code   RO         1871    x$fpl$dretinf       fz_wm.l(dretinf.o)
    0x08019bc0   0x08019bc0   0x0000006c   Code   RO         1698    x$fpl$drleqf        fz_wm.l(drleqf.o)
    0x08019c2c   0x08019c2c   0x00000016   Code   RO         1673    x$fpl$drsb          fz_wm.l(daddsub_clz.o)
    0x08019c42   0x08019c42   0x00000002   PAD
    0x08019c44   0x08019c44   0x00000198   Code   RO         1873    x$fpl$dsqrt         fz_wm.l(dsqrt_umaal.o)
    0x08019ddc   0x08019ddc   0x000001d4   Code   RO         1674    x$fpl$dsub          fz_wm.l(daddsub_clz.o)
    0x08019fb0   0x08019fb0   0x00000056   Code   RO         1700    x$fpl$f2d           fz_wm.l(f2d.o)
    0x0801a006   0x0801a006   0x0000008c   Code   RO         1875    x$fpl$fnaninf       fz_wm.l(fnaninf.o)
    0x0801a092   0x0801a092   0x0000000a   Code   RO         2029    x$fpl$fpinit        fz_wm.l(fpinit.o)
    0x0801a09c   0x0801a09c   0x0000000a   Code   RO         1877    x$fpl$fretinf       fz_wm.l(fretinf.o)
    0x0801a0a6   0x0801a0a6   0x00000000   Code   RO         1881    x$fpl$usenofp       fz_wm.l(usenofp.o)
    0x0801a0a6   0x0801a0a6   0x00000002   PAD
    0x0801a0a8   0x0801a0a8   0x00000030   Data   RO         1883    .constdata          m_wm.l(cos_i.o)
    0x0801a0d8   0x0801a0d8   0x000000c8   Data   RO         1922    .constdata          m_wm.l(rred.o)
    0x0801a1a0   0x0801a1a0   0x00000020   Data   RO         1926    .constdata          m_wm.l(rredf.o)
    0x0801a1c0   0x0801a1c0   0x00000028   Data   RO         1929    .constdata          m_wm.l(sin_i.o)
    0x0801a1e8   0x0801a1e8   0x00000020   Data   RO         2095    Region$$Table       anon$$obj.o


    Execution Region RW_IRAM1 (Exec base: 0x20000000, Load base: 0x0801a208, Size: 0x0000d860, Max: 0x00020000, ABSOLUTE, COMPRESSED[0x00000308])

    Exec Addr    Load Addr    Size         Type   Attr      Idx    E Section Name        Object

    0x20000000   COMPRESSED   0x000001b4   Data   RW            4    .data               aaa.o
    0x200001b4   COMPRESSED   0x00000160   Data   RW          144    .data               main.o
    0x20000314   COMPRESSED   0x00000044   Data   RW          270    .data               attitudealgorithm.o
    0x20000358   COMPRESSED   0x00000028   Data   RW          292    .data               calculateslocation.o
    0x20000380   COMPRESSED   0x00000008   Data   RW          352    .data               elmo.o
    0x20000388   COMPRESSED   0x0000006f   Data   RW          409    .data               exit.o
    0x200003f7   COMPRESSED   0x00000001   PAD
    0x200003f8   COMPRESSED   0x00000008   Data   RW          436    .data               extiz.o
    0x20000400   COMPRESSED   0x00000174   Data   RW          472    .data               fsmcompensator.o
    0x20000574   COMPRESSED   0x00000004   PAD
    0x20000578   COMPRESSED   0x00000120   Data   RW          491    .data               fsmcompensator_servo.o
    0x20000698   COMPRESSED   0x00000014   Data   RW          534    .data               ioinit.o
    0x200006ac   COMPRESSED   0x00000078   Data   RW          553    .data               motoroutputposse.o
    0x20000724   COMPRESSED   0x00000090   Data   RW          573    .data               pointfunction.o
    0x200007b4   COMPRESSED   0x0000010b   Data   RW          600    .data               positionloop.o
    0x200008bf   COMPRESSED   0x00000001   PAD
    0x200008c0   COMPRESSED   0x000000bc   Data   RW          623    .data               servofunction.o
    0x2000097c   COMPRESSED   0x0000005a   Data   RW          650    .data               scanfunction.o
    0x200009d6   COMPRESSED   0x00000002   PAD
    0x200009d8   COMPRESSED   0x00000024   Data   RW          674    .data               stm32f4xx_it.o
    0x200009fc   COMPRESSED   0x00000800   Data   RW          759    .data               timer.o
    0x200011fc   COMPRESSED   0x00000062   Data   RW          808    .data               yunsufunction.o
    0x2000125e   COMPRESSED   0x00000002   PAD
    0x20001260   COMPRESSED   0x0000003c   Data   RW          829    .data               fy_485.o
    0x2000129c   COMPRESSED   0x00000010   Data   RW          992    .data               saomiao.o
    0x200012ac   COMPRESSED   0x0000001a   Data   RW         1027    .data               usart.o
    0x200012c6   COMPRESSED   0x00000002   PAD
    0x200012c8   COMPRESSED   0x000000f1   Data   RW         1054    .data               receive_send_data.o
    0x200013b9   COMPRESSED   0x00000007   PAD
    0x200013c0   COMPRESSED   0x000000c8   Data   RW         1075    .data               deg_inversesolution.o
    0x20001488   COMPRESSED   0x0000001c   Data   RW         1099    .data               writeguandao.o
    0x200014a4   COMPRESSED   0x00000010   Data   RW         1478    .data               stm32f4xx_rcc.o
    0x200014b4   COMPRESSED   0x00000014   Data   RW         1624    .data               system_stm32f4xx.o
    0x200014c8        -       0x00000232   Zero   RW            3    .bss                aaa.o
    0x200016fa        -       0x0000001e   Zero   RW          143    .bss                main.o
    0x20001718        -       0x00000f40   Zero   RW          471    .bss                fsmcompensator.o
    0x20002658        -       0x00000b00   Zero   RW          490    .bss                fsmcompensator_servo.o
    0x20003158        -       0x00000024   Zero   RW          673    .bss                stm32f4xx_it.o
    0x2000317c        -       0x0000805c   Zero   RW          758    .bss                timer.o
    0x2000b1d8        -       0x00001f40   Zero   RW          950    .bss                rms2.o
    0x2000d118        -       0x00000044   Zero   RW         1026    .bss                usart.o
    0x2000d15c        -       0x00000087   Zero   RW         1053    .bss                receive_send_data.o
    0x2000d1e3        -       0x0000001b   Zero   RW         1098    .bss                writeguandao.o
    0x2000d1fe   COMPRESSED   0x00000002   PAD
    0x2000d200        -       0x00000060   Zero   RW         1957    .bss                c_w.l(libspace.o)
    0x2000d260        -       0x00000200   Zero   RW         1118    HEAP                startup_stm32f4xx.o
    0x2000d460        -       0x00000400   Zero   RW         1117    STACK               startup_stm32f4xx.o


==============================================================================

Image component sizes


      Code (inc. data)   RO Data    RW Data    ZI Data      Debug   Object Name

     13572       1414          0        436        562     315569   aaa.o
         0          0          0         68          0        849   attitudealgorithm.o
         0          0          0         40          0       1299   calculateslocation.o
       988         14          0          0          0       2740   can.o
      2896        216          0        200          0       3925   deg_inversesolution.o
         0          0          0          0          0        680   dycnvertcoordinate1.o
      7132        122          0          8          0      24018   elmo.o
         0          0          0        111          0       2211   exit.o
       124         14          0          8          0       1142   extiz.o
       676         16          0          0          0       1015   fsmc.o
     15472       1074          0        372       3904      12513   fsmcompensator.o
      5924        602          0        288       2816      10833   fsmcompensator_servo.o
         0          0          0         60          0       1578   fy_485.o
       820         94          0         20          0       2520   ioinit.o
       516         78          0        352         30       6683   main.o
       224         20          0          0          0       2133   misc.o
       652        104          0        120          0       4327   motoroutputposse.o
       380        106          0        144          0       2998   pointfunction.o
      4100        516          0        267          0       5580   positionloop.o
      4096        420          0        241        135      12789   receive_send_data.o
       512         24          0          0       8000       2162   rms2.o
       460         32          0         16          0       1876   saomiao.o
         0          0          0         90          0       2544   scanfunction.o
      2824        424          0        188          0       4175   servofunction.o
        64         26        392          0       1536        984   startup_stm32f4xx.o
      2544         38          0          0          0       8456   stm32f4xx_can.o
       284         10          0          0          0       2635   stm32f4xx_exti.o
      1212         26          0          0          0       7397   stm32f4xx_flash.o
      1544         14          0          0          0       5751   stm32f4xx_fsmc.o
       604         36          0          0          0       4437   stm32f4xx_gpio.o
      4600        384          0         36         36       6288   stm32f4xx_it.o
      1416         48          0         16          0      11467   stm32f4xx_rcc.o
       140         12          0          0          0       1823   stm32f4xx_syscfg.o
      3234         60          0          0          0      23328   stm32f4xx_tim.o
      1070         26          0          0          0       8232   stm32f4xx_usart.o
       348         48          0          0          0       2321   stmflash.o
       528         46          0         20          0       2335   system_stm32f4xx.o
     17540       2952          0       2048      32860      60648   timer.o
      1476        208          0         26         68       5732   usart.o
       396         62          0         28         27       2079   writeguandao.o
         0          0          0         98          0       2517   yunsufunction.o

    ----------------------------------------------------------------------
     98372       9286        424       5320      49976     582589   Object Totals
         0          0         32          0          0          0   (incl. Generated)
         4          0          0         19          2          0   (incl. Padding)

    ----------------------------------------------------------------------

      Code (inc. data)   RO Data    RW Data    ZI Data      Debug   Library Member Name

        90          0          0          0          0          0   __dczerorl2.o
         8          0          0          0          0         68   __main.o
         0          0          0          0          0          0   __rtentry.o
        12          0          0          0          0          0   __rtentry2.o
         6          0          0          0          0          0   __rtentry4.o
        52          8          0          0          0          0   __scatter.o
        28          0          0          0          0          0   __scatter_zi.o
        22          0          0          0          0        100   _rserrno.o
        18          0          0          0          0         80   exit.o
         6          0          0          0          0        152   heapauxi.o
         2          0          0          0          0          0   libinit.o
         6          0          0          0          0          0   libinit2.o
         2          0          0          0          0          0   libshutdown.o
         2          0          0          0          0          0   libshutdown2.o
         8          4          0          0         96         68   libspace.o
         8          4          0          0          0         68   rt_errno_addr_intlibspace.o
         2          0          0          0          0          0   rtexit.o
        10          0          0          0          0          0   rtexit2.o
        74          0          0          0          0         80   sys_stackheap_outer.o
         2          0          0          0          0         68   use_no_semi.o
         2          0          0          0          0         68   use_no_semi_2.o
        24          0          0          0          0        164   basic.o
        98          4          0          0          0        140   d2f.o
       826         16          0          0          0        492   daddsub_clz.o
        24          0          0          0          0        116   dcmpi.o
       688        140          0          0          0        256   ddiv.o
       120          4          0          0          0        140   deqf.o
        94          4          0          0          0        140   dfix.o
        84          0          0          0          0        232   dflt_clz.o
       120          4          0          0          0        140   dleqf.o
       340         12          0          0          0        152   dmul.o
       156          4          0          0          0        140   dnaninf.o
        12          0          0          0          0        116   dretinf.o
       108          0          0          0          0        128   drleqf.o
       408         56          0          0          0        168   dsqrt_umaal.o
        86          4          0          0          0        132   f2d.o
       140          4          0          0          0        132   fnaninf.o
        10          0          0          0          0        116   fpinit.o
        10          0          0          0          0        116   fretinf.o
         0          0          0          0          0          0   usenofp.o
       280         46          0          0          0        176   acosf.o
       300         42          0          0          0        176   asinf.o
       200         20          0          0          0        164   cos.o
       368         46         48          0          0        200   cos_i.o
        84         16          0          0          0        372   dunder.o
        44          0          0          0          0        248   fabs.o
        48          0          0          0          0        124   fpclassify.o
        38          0          0          0          0        116   fpclassifyf.o
        38         12          0          0          0        348   funder.o
       248          0          0          0          0        152   poly.o
      1080        142        200          0          0        188   rred.o
       340         24         32          0          0        160   rredf.o
       200         20          0          0          0        164   sin.o
       304         24         40          0          0        208   sin_i.o
       400         56          0          0          0        212   sinf.o
       122          0          0          0          0        148   sqrt.o
        62          0          0          0          0        136   sqrtf.o

    ----------------------------------------------------------------------
      7900        720        320          0         96       7064   Library Totals
        36          4          0          0          0          0   (incl. Padding)

    ----------------------------------------------------------------------

      Code (inc. data)   RO Data    RW Data    ZI Data      Debug   Library Name

       360         16          0          0         96        752   c_w.l
      3348        252          0          0          0       3020   fz_wm.l
      4156        448        320          0          0       3292   m_wm.l

    ----------------------------------------------------------------------
      7900        720        320          0         96       7064   Library Totals

    ----------------------------------------------------------------------

==============================================================================


      Code (inc. data)   RO Data    RW Data    ZI Data      Debug   

    106272      10006        744       5320      50072     577793   Grand Totals
    106272      10006        744        776      50072     577793   ELF Image Totals (compressed)
    106272      10006        744        776          0          0   ROM Totals

==============================================================================

    Total RO  Size (Code + RO Data)               107016 ( 104.51kB)
    Total RW  Size (RW Data + ZI Data)             55392 (  54.09kB)
    Total ROM Size (Code + RO Data + RW Data)     107792 ( 105.27kB)

==============================================================================

